---
triple:          'arm64-apple-darwin'
binary-path:     d.bin
relocations:
  - { offsetInCU: 0x5C, offset: 0x5C, size: 0x8, addend: 0x0, symName: __ZNSt3__1L19piecewise_constructE, symObjAddr: 0x4FC5, symBinAddr: 0x100007BD5, symSize: 0x0 }
  - { offsetInCU: 0x7514, offset: 0x7514, size: 0x8, addend: 0x0, symName: __ZNSt3__124__put_character_sequenceB7v160006IcNS_11char_traitsIcEEEERNS_13basic_ostreamIT_T0_EES7_PKS4_m, symObjAddr: 0x42A8, symBinAddr: 0x100006C6C, symSize: 0x1EC }
  - { offsetInCU: 0x908C, offset: 0x908C, size: 0x8, addend: 0x0, symName: __ZNSt3__14sortB7v160006INS_11__wrap_iterIPxEEEEvT_S4_, symObjAddr: 0x2FC, symBinAddr: 0x100002CC0, symSize: 0x3C }
  - { offsetInCU: 0x90CE, offset: 0x90CE, size: 0x8, addend: 0x0, symName: __ZNSt3__1lsB7v160006INS_11char_traitsIcEEEERNS_13basic_ostreamIcT_EES6_PKc, symObjAddr: 0x4A4, symBinAddr: 0x100002E68, symSize: 0x48 }
  - { offsetInCU: 0x9114, offset: 0x9114, size: 0x8, addend: 0x0, symName: __ZNSt3__119__debug_db_insert_cB7v160006INS_6vectorIxNS_9allocatorIxEEEEEEvPT_, symObjAddr: 0x6C8, symBinAddr: 0x10000308C, symSize: 0x10 }
  - { offsetInCU: 0x9145, offset: 0x9145, size: 0x8, addend: 0x0, symName: __ZNSt3__118__debug_db_erase_cB7v160006INS_6vectorIxNS_9allocatorIxEEEEEEvPT_, symObjAddr: 0x98C, symBinAddr: 0x100003350, symSize: 0x10 }
  - { offsetInCU: 0x9176, offset: 0x9176, size: 0x8, addend: 0x0, symName: __ZNSt3__112__to_addressB7v160006IxEEPT_S2_, symObjAddr: 0xAD0, symBinAddr: 0x100003494, symSize: 0x14 }
  - { offsetInCU: 0x91AB, offset: 0x91AB, size: 0x8, addend: 0x0, symName: __ZNSt3__119__libcpp_deallocateB7v160006EPvmm, symObjAddr: 0xBF0, symBinAddr: 0x1000035B4, symSize: 0x60 }
  - { offsetInCU: 0x9210, offset: 0x9210, size: 0x8, addend: 0x0, symName: __ZNSt3__124__is_overaligned_for_newB7v160006Em, symObjAddr: 0xC50, symBinAddr: 0x100003614, symSize: 0x20 }
  - { offsetInCU: 0x923E, offset: 0x923E, size: 0x8, addend: 0x0, symName: __ZNSt3__127__do_deallocate_handle_sizeB7v160006IJSt11align_val_tEEEvPvmDpT_, symObjAddr: 0xC70, symBinAddr: 0x100003634, symSize: 0x30 }
  - { offsetInCU: 0x9291, offset: 0x9291, size: 0x8, addend: 0x0, symName: __ZNSt3__127__do_deallocate_handle_sizeB7v160006IJEEEvPvmDpT_, symObjAddr: 0xCA0, symBinAddr: 0x100003664, symSize: 0x28 }
  - { offsetInCU: 0x92CF, offset: 0x92CF, size: 0x8, addend: 0x0, symName: __ZNSt3__124__libcpp_operator_deleteB7v160006IJPvSt11align_val_tEEEvDpT_, symObjAddr: 0xCC8, symBinAddr: 0x10000368C, symSize: 0x2C }
  - { offsetInCU: 0x9318, offset: 0x9318, size: 0x8, addend: 0x0, symName: __ZNSt3__124__libcpp_operator_deleteB7v160006IJPvEEEvDpT_, symObjAddr: 0xCF4, symBinAddr: 0x1000036B8, symSize: 0x24 }
  - { offsetInCU: 0x934D, offset: 0x934D, size: 0x8, addend: 0x0, symName: __ZNSt3__13maxB7v160006ImEERKT_S3_S3_, symObjAddr: 0x1358, symBinAddr: 0x100003D1C, symSize: 0x2C }
  - { offsetInCU: 0x9390, offset: 0x9390, size: 0x8, addend: 0x0, symName: __ZNSt3__13minB7v160006ImEERKT_S3_S3_, symObjAddr: 0x1384, symBinAddr: 0x100003D48, symSize: 0x2C }
  - { offsetInCU: 0x95BD, offset: 0x95BD, size: 0x8, addend: 0x0, symName: __ZNSt3__13minB7v160006ImNS_6__lessImmEEEERKT_S5_S5_T0_, symObjAddr: 0x1410, symBinAddr: 0x100003DD4, symSize: 0x54 }
  - { offsetInCU: 0x9652, offset: 0x9652, size: 0x8, addend: 0x0, symName: __ZNSt3__120__throw_length_errorB7v160006EPKc, symObjAddr: 0x14EC, symBinAddr: 0x100003EB0, symSize: 0x64 }
  - { offsetInCU: 0x967A, offset: 0x967A, size: 0x8, addend: 0x0, symName: __ZNSt3__13maxB7v160006ImNS_6__lessImmEEEERKT_S5_S5_T0_, symObjAddr: 0x15D0, symBinAddr: 0x100003F94, symSize: 0x54 }
  - { offsetInCU: 0x96D4, offset: 0x96D4, size: 0x8, addend: 0x0, symName: __ZNSt3__119__allocate_at_leastB7v160006INS_9allocatorIxEEEENS_19__allocation_resultINS_16allocator_traitsIT_E7pointerEEERS5_m, symObjAddr: 0x1734, symBinAddr: 0x1000040F8, symSize: 0x40 }
  - { offsetInCU: 0x9717, offset: 0x9717, size: 0x8, addend: 0x0, symName: __ZNSt3__117__libcpp_allocateB7v160006Emm, symObjAddr: 0x18B8, symBinAddr: 0x10000427C, symSize: 0x60 }
  - { offsetInCU: 0x9771, offset: 0x9771, size: 0x8, addend: 0x0, symName: __ZNSt3__121__libcpp_operator_newB7v160006IJmSt11align_val_tEEEPvDpT_, symObjAddr: 0x1918, symBinAddr: 0x1000042DC, symSize: 0x2C }
  - { offsetInCU: 0x97BE, offset: 0x97BE, size: 0x8, addend: 0x0, symName: __ZNSt3__121__libcpp_operator_newB7v160006IJmEEEPvDpT_, symObjAddr: 0x1944, symBinAddr: 0x100004308, symSize: 0x24 }
  - { offsetInCU: 0x97F7, offset: 0x97F7, size: 0x8, addend: 0x0, symName: __ZNSt3__142__uninitialized_allocator_move_if_noexceptB7v160006INS_9allocatorIxEENS_16reverse_iteratorIPxEES5_xvEET1_RT_T0_S9_S6_, symObjAddr: 0x19CC, symBinAddr: 0x100004390, symSize: 0x78 }
  - { offsetInCU: 0x9874, offset: 0x9874, size: 0x8, addend: 0x0, symName: __ZNSt3__14swapB7v160006IPxEENS_9enable_ifIXaasr21is_move_constructibleIT_EE5valuesr18is_move_assignableIS3_EE5valueEvE4typeERS3_S6_, symObjAddr: 0x1A90, symBinAddr: 0x100004454, symSize: 0x3C }
  - { offsetInCU: 0x98C5, offset: 0x98C5, size: 0x8, addend: 0x0, symName: __ZNSt3__125__debug_db_invalidate_allB7v160006INS_6vectorIxNS_9allocatorIxEEEEEEvPT_, symObjAddr: 0x1B78, symBinAddr: 0x10000453C, symSize: 0x10 }
  - { offsetInCU: 0x98F6, offset: 0x98F6, size: 0x8, addend: 0x0, symName: __ZNSt3__14moveB7v160006INS_16reverse_iteratorIPxEES3_EET0_T_S5_S4_, symObjAddr: 0x1B88, symBinAddr: 0x10000454C, symSize: 0x78 }
  - { offsetInCU: 0x9950, offset: 0x9950, size: 0x8, addend: 0x0, symName: __ZNSt3__16__moveB7v160006INS_17_ClassicAlgPolicyENS_16reverse_iteratorIPxEES4_S4_EENS_4pairIT0_T2_EES6_T1_S7_, symObjAddr: 0x1C00, symBinAddr: 0x1000045C4, symSize: 0x64 }
  - { offsetInCU: 0x99BC, offset: 0x99BC, size: 0x8, addend: 0x0, symName: __ZNSt3__123__dispatch_copy_or_moveB7v160006INS_17_ClassicAlgPolicyENS_11__move_loopIS1_EENS_14__move_trivialENS_16reverse_iteratorIPxEES7_S7_EENS_4pairIT2_T4_EES9_T3_SA_, symObjAddr: 0x1C64, symBinAddr: 0x100004628, symSize: 0x64 }
  - { offsetInCU: 0x9A3A, offset: 0x9A3A, size: 0x8, addend: 0x0, symName: __ZNSt3__121__unwrap_and_dispatchB7v160006INS_10__overloadINS_11__move_loopINS_17_ClassicAlgPolicyEEENS_14__move_trivialEEENS_16reverse_iteratorIPxEES9_S9_Li0EEENS_4pairIT0_T2_EESB_T1_SC_, symObjAddr: 0x1CC8, symBinAddr: 0x10000468C, symSize: 0x12C }
  - { offsetInCU: 0x9ACA, offset: 0x9ACA, size: 0x8, addend: 0x0, symName: __ZNSt3__114__unwrap_rangeB7v160006INS_16reverse_iteratorIPxEES3_EENS_4pairIT0_S5_EET_S7_, symObjAddr: 0x1DF4, symBinAddr: 0x1000047B8, symSize: 0x84 }
  - { offsetInCU: 0x9C45, offset: 0x9C45, size: 0x8, addend: 0x0, symName: __ZNSt3__113__unwrap_iterB7v160006INS_16reverse_iteratorIPxEENS_18__unwrap_iter_implIS3_Lb0EEELi0EEEDTclsrT0_8__unwrapclsr3stdE7declvalIT_EEEES7_, symObjAddr: 0x1F18, symBinAddr: 0x1000048DC, symSize: 0x44 }
  - { offsetInCU: 0x9C89, offset: 0x9C89, size: 0x8, addend: 0x0, symName: __ZNSt3__19make_pairB7v160006INS_16reverse_iteratorIPxEES3_EENS_4pairINS_18__unwrap_ref_decayIT_E4typeENS5_IT0_E4typeEEEOS6_OS9_, symObjAddr: 0x1F5C, symBinAddr: 0x100004920, symSize: 0x38 }
  - { offsetInCU: 0x9CD8, offset: 0x9CD8, size: 0x8, addend: 0x0, symName: __ZNSt3__114__rewrap_rangeB7v160006INS_16reverse_iteratorIPxEES3_EET_S4_T0_, symObjAddr: 0x1F94, symBinAddr: 0x100004958, symSize: 0x5C }
  - { offsetInCU: 0x9D24, offset: 0x9D24, size: 0x8, addend: 0x0, symName: __ZNSt3__113__rewrap_iterB7v160006INS_16reverse_iteratorIPxEES3_NS_18__unwrap_iter_implIS3_Lb0EEEEET_S6_T0_, symObjAddr: 0x1FF0, symBinAddr: 0x1000049B4, symSize: 0x74 }
  - { offsetInCU: 0x9D79, offset: 0x9D79, size: 0x8, addend: 0x0, symName: __ZNSt3__1neB7v160006IPxS1_EEbRKNS_16reverse_iteratorIT_EERKNS2_IT0_EE, symObjAddr: 0x2064, symBinAddr: 0x100004A28, symSize: 0x48 }
  - { offsetInCU: 0x9E77, offset: 0x9E77, size: 0x8, addend: 0x0, symName: __ZNSt3__14sortB7v160006INS_11__wrap_iterIPxEENS_6__lessIxxEEEEvT_S6_T0_, symObjAddr: 0x2488, symBinAddr: 0x100004E4C, symSize: 0x40 }
  - { offsetInCU: 0x9ED1, offset: 0x9ED1, size: 0x8, addend: 0x0, symName: __ZNSt3__111__sort_implB7v160006INS_17_ClassicAlgPolicyENS_11__wrap_iterIPxEENS_6__lessIxxEEEEvT0_S7_RT1_, symObjAddr: 0x24C8, symBinAddr: 0x100004E8C, symSize: 0x84 }
  - { offsetInCU: 0x9F78, offset: 0x9F78, size: 0x8, addend: 0x0, symName: __ZNSt3__123__debug_randomize_rangeB7v160006INS_17_ClassicAlgPolicyENS_11__wrap_iterIPxEES4_EEvT0_T1_, symObjAddr: 0x254C, symBinAddr: 0x100004F10, symSize: 0x14 }
  - { offsetInCU: 0x9FC9, offset: 0x9FC9, size: 0x8, addend: 0x0, symName: __ZNSt3__113__unwrap_iterB7v160006INS_11__wrap_iterIPxEENS_18__unwrap_iter_implIS3_Lb1EEELi0EEEDTclsrT0_8__unwrapclsr3stdE7declvalIT_EEEES7_, symObjAddr: 0x2560, symBinAddr: 0x100004F24, symSize: 0x2C }
  - { offsetInCU: 0xA060, offset: 0xA060, size: 0x8, addend: 0x0, symName: __ZNSt3__112__to_addressB7v160006INS_11__wrap_iterIPxEEvEENS_5decayIDTclsr19__to_address_helperIT_EE6__callclsr3stdE7declvalIRKS5_EEEEE4typeES7_, symObjAddr: 0x25B4, symBinAddr: 0x100004F78, symSize: 0x24 }
  - { offsetInCU: 0xA172, offset: 0xA172, size: 0x8, addend: 0x0, symName: __ZNSt3__17launderB7v160006INS_4pairIKNS1_IiiEEiEEEEPT_S6_, symObjAddr: 0x2C54, symBinAddr: 0x100005618, symSize: 0x24 }
  - { offsetInCU: 0xA1A9, offset: 0xA1A9, size: 0x8, addend: 0x0, symName: __ZNSt3__19__launderB7v160006INS_4pairIKNS1_IiiEEiEEEEPT_S6_, symObjAddr: 0x2C78, symBinAddr: 0x10000563C, symSize: 0x14 }
  - { offsetInCU: 0xA217, offset: 0xA217, size: 0x8, addend: 0x0, symName: __ZNSt3__116forward_as_tupleB7v160006IJNS_4pairIiiEEEEENS_5tupleIJDpOT_EEES6_, symObjAddr: 0x2E34, symBinAddr: 0x1000057F8, symSize: 0x2C }
  - { offsetInCU: 0xA250, offset: 0xA250, size: 0x8, addend: 0x0, symName: __ZNSt3__116forward_as_tupleB7v160006IJEEENS_5tupleIJDpOT_EEES4_, symObjAddr: 0x2E60, symBinAddr: 0x100005824, symSize: 0x4 }
  - { offsetInCU: 0xA274, offset: 0xA274, size: 0x8, addend: 0x0, symName: __ZNSt3__1ltB7v160006IiiEEbRKNS_4pairIT_T0_EES6_, symObjAddr: 0x347C, symBinAddr: 0x100005E40, symSize: 0x98 }
  - { offsetInCU: 0xA2C3, offset: 0xA2C3, size: 0x8, addend: 0x0, symName: __ZNSt3__17launderB7v160006IKNS_4pairIKNS1_IiiEEiEEEEPT_S7_, symObjAddr: 0x3514, symBinAddr: 0x100005ED8, symSize: 0x24 }
  - { offsetInCU: 0xA2FA, offset: 0xA2FA, size: 0x8, addend: 0x0, symName: __ZNSt3__19__launderB7v160006IKNS_4pairIKNS1_IiiEEiEEEEPT_S7_, symObjAddr: 0x3538, symBinAddr: 0x100005EFC, symSize: 0x14 }
  - { offsetInCU: 0xA35A, offset: 0xA35A, size: 0x8, addend: 0x0, symName: __ZNSt3__13getB7v160006ILm0EJONS_4pairIiiEEEEERNS_13tuple_elementIXT_ENS_5tupleIJDpT0_EEEE4typeERS8_, symObjAddr: 0x397C, symBinAddr: 0x100006340, symSize: 0x24 }
  - { offsetInCU: 0xA39D, offset: 0xA39D, size: 0x8, addend: 0x0, symName: __ZNSt3__127__tree_balance_after_insertB7v160006IPNS_16__tree_node_baseIPvEEEEvT_S5_, symObjAddr: 0x3A2C, symBinAddr: 0x1000063F0, symSize: 0x32C }
  - { offsetInCU: 0xA419, offset: 0xA419, size: 0x8, addend: 0x0, symName: __ZNSt3__120__tree_is_left_childB7v160006IPNS_16__tree_node_baseIPvEEEEbT_, symObjAddr: 0x3D98, symBinAddr: 0x10000675C, symSize: 0x2C }
  - { offsetInCU: 0xA44E, offset: 0xA44E, size: 0x8, addend: 0x0, symName: __ZNSt3__118__tree_left_rotateB7v160006IPNS_16__tree_node_baseIPvEEEEvT_, symObjAddr: 0x3DC4, symBinAddr: 0x100006788, symSize: 0xD8 }
  - { offsetInCU: 0xA490, offset: 0xA490, size: 0x8, addend: 0x0, symName: __ZNSt3__119__tree_right_rotateB7v160006IPNS_16__tree_node_baseIPvEEEEvT_, symObjAddr: 0x3E9C, symBinAddr: 0x100006860, symSize: 0xCC }
  - { offsetInCU: 0xA529, offset: 0xA529, size: 0x8, addend: 0x0, symName: __ZNSt3__116__pad_and_outputB7v160006IcNS_11char_traitsIcEEEENS_19ostreambuf_iteratorIT_T0_EES6_PKS4_S8_S8_RNS_8ios_baseES4_, symObjAddr: 0x44E4, symBinAddr: 0x100006EA8, symSize: 0x240 }
  - { offsetInCU: 0xA5F8, offset: 0xA5F8, size: 0x8, addend: 0x0, symName: __ZNSt3__119__debug_db_insert_cB7v160006INS_12basic_stringIcNS_11char_traitsIcEENS_9allocatorIcEEEEEEvPT_, symObjAddr: 0x4998, symBinAddr: 0x10000735C, symSize: 0x10 }
  - { offsetInCU: 0xA629, offset: 0xA629, size: 0x8, addend: 0x0, symName: __ZNSt3__112__to_addressB7v160006IcEEPT_S2_, symObjAddr: 0x4A64, symBinAddr: 0x100007428, symSize: 0x14 }
  - { offsetInCU: 0xA691, offset: 0xA691, size: 0x8, addend: 0x0, symName: __ZNSt3__19use_facetB7v160006INS_5ctypeIcEEEERKT_RKNS_6localeE, symObjAddr: 0x4D1C, symBinAddr: 0x1000076E0, symSize: 0x2C }
  - { offsetInCU: 0xAB60, offset: 0xAB60, size: 0x8, addend: 0x0, symName: __ZNSt3__118__constexpr_strlenB7v160006EPKc, symObjAddr: 0x4DB4, symBinAddr: 0x100007778, symSize: 0x24 }
  - { offsetInCU: 0xAEA0, offset: 0xAEA0, size: 0x8, addend: 0x0, symName: __ZSt28__throw_bad_array_new_lengthB7v160006v, symObjAddr: 0x1884, symBinAddr: 0x100004248, symSize: 0x34 }
  - { offsetInCU: 0xB362, offset: 0xB362, size: 0x8, addend: 0x0, symName: __ZNSt3__16vectorIxNS_9allocatorIxEEE26__swap_out_circular_bufferERNS_14__split_bufferIxRS2_EE, symObjAddr: 0x1198, symBinAddr: 0x100003B5C, symSize: 0x118 }
  - { offsetInCU: 0xDB05, offset: 0xDB05, size: 0x8, addend: 0x0, symName: __Z5solvev, symObjAddr: 0x0, symBinAddr: 0x1000029C4, symSize: 0x264 }
  - { offsetInCU: 0xDBF5, offset: 0xDBF5, size: 0x8, addend: 0x0, symName: __ZNSt3__16vectorIxNS_9allocatorIxEEEC1B7v160006Ev, symObjAddr: 0x264, symBinAddr: 0x100002C28, symSize: 0x2C }
  - { offsetInCU: 0xDC1E, offset: 0xDC1E, size: 0x8, addend: 0x0, symName: __ZNSt3__16vectorIxNS_9allocatorIxEEE9push_backB7v160006ERKx, symObjAddr: 0x290, symBinAddr: 0x100002C54, symSize: 0x6C }
  - { offsetInCU: 0xDC53, offset: 0xDC53, size: 0x8, addend: 0x0, symName: __ZNSt3__16vectorIxNS_9allocatorIxEEE5beginB7v160006Ev, symObjAddr: 0x338, symBinAddr: 0x100002CFC, symSize: 0x30 }
  - { offsetInCU: 0xDC79, offset: 0xDC79, size: 0x8, addend: 0x0, symName: __ZNSt3__16vectorIxNS_9allocatorIxEEE3endB7v160006Ev, symObjAddr: 0x368, symBinAddr: 0x100002D2C, symSize: 0x30 }
  - { offsetInCU: 0xDC9F, offset: 0xDC9F, size: 0x8, addend: 0x0, symName: __ZNSt3__13mapINS_4pairIiiEEiNS_4lessIS2_EENS_9allocatorINS1_IKS2_iEEEEEC1B7v160006Ev, symObjAddr: 0x398, symBinAddr: 0x100002D5C, symSize: 0x2C }
  - { offsetInCU: 0xDCC8, offset: 0xDCC8, size: 0x8, addend: 0x0, symName: __ZNSt3__16vectorIxNS_9allocatorIxEEEixB7v160006Em, symObjAddr: 0x3C4, symBinAddr: 0x100002D88, symSize: 0x24 }
  - { offsetInCU: 0xDCFE, offset: 0xDCFE, size: 0x8, addend: 0x0, symName: __ZNSt3__13mapINS_4pairIiiEEiNS_4lessIS2_EENS_9allocatorINS1_IKS2_iEEEEEixEOS2_, symObjAddr: 0x3E8, symBinAddr: 0x100002DAC, symSize: 0x80 }
  - { offsetInCU: 0xDD38, offset: 0xDD38, size: 0x8, addend: 0x0, symName: __ZNSt3__14pairIiiEC1B7v160006IRiS3_LPv0EEEOT_OT0_, symObjAddr: 0x468, symBinAddr: 0x100002E2C, symSize: 0x3C }
  - { offsetInCU: 0xDD95, offset: 0xDD95, size: 0x8, addend: 0x0, symName: __ZNSt3__13mapINS_4pairIiiEEiNS_4lessIS2_EENS_9allocatorINS1_IKS2_iEEEEED1B7v160006Ev, symObjAddr: 0x4EC, symBinAddr: 0x100002EB0, symSize: 0x2C }
  - { offsetInCU: 0xDDBE, offset: 0xDDBE, size: 0x8, addend: 0x0, symName: __ZNSt3__16vectorIxNS_9allocatorIxEEED1B7v160006Ev, symObjAddr: 0x518, symBinAddr: 0x100002EDC, symSize: 0x2C }
  - { offsetInCU: 0xDDE7, offset: 0xDDE7, size: 0x8, addend: 0x0, symName: _main, symObjAddr: 0x544, symBinAddr: 0x100002F08, symSize: 0x84 }
  - { offsetInCU: 0xDE10, offset: 0xDE10, size: 0x8, addend: 0x0, symName: __ZNSt3__19basic_iosIcNS_11char_traitsIcEEE3tieB7v160006EPNS_13basic_ostreamIcS2_EE, symObjAddr: 0x5C8, symBinAddr: 0x100002F8C, symSize: 0x2C }
  - { offsetInCU: 0xDE55, offset: 0xDE55, size: 0x8, addend: 0x0, symName: __ZNSt3__14pairIiiEC2B7v160006IRiS3_LPv0EEEOT_OT0_, symObjAddr: 0x5F4, symBinAddr: 0x100002FB8, symSize: 0x34 }
  - { offsetInCU: 0xDEB2, offset: 0xDEB2, size: 0x8, addend: 0x0, symName: __ZNSt3__16vectorIxNS_9allocatorIxEEEC2B7v160006Ev, symObjAddr: 0x628, symBinAddr: 0x100002FEC, symSize: 0x58 }
  - { offsetInCU: 0xDEE5, offset: 0xDEE5, size: 0x8, addend: 0x0, symName: __ZNSt3__117__compressed_pairIPxNS_9allocatorIxEEEC1B7v160006IDnNS_18__default_init_tagEEEOT_OT0_, symObjAddr: 0x680, symBinAddr: 0x100003044, symSize: 0x3C }
  - { offsetInCU: 0xDF3C, offset: 0xDF3C, size: 0x8, addend: 0x0, symName: __ZNSt3__117__compressed_pairIPxNS_9allocatorIxEEEC2B7v160006IDnNS_18__default_init_tagEEEOT_OT0_, symObjAddr: 0x6D8, symBinAddr: 0x10000309C, symSize: 0x40 }
  - { offsetInCU: 0xDF93, offset: 0xDF93, size: 0x8, addend: 0x0, symName: __ZNSt3__122__compressed_pair_elemIPxLi0ELb0EEC2B7v160006IDnvEEOT_, symObjAddr: 0x718, symBinAddr: 0x1000030DC, symSize: 0x1C }
  - { offsetInCU: 0xDFD4, offset: 0xDFD4, size: 0x8, addend: 0x0, symName: __ZNSt3__122__compressed_pair_elemINS_9allocatorIxEELi1ELb1EEC2B7v160006ENS_18__default_init_tagE, symObjAddr: 0x734, symBinAddr: 0x1000030F8, symSize: 0x2C }
  - { offsetInCU: 0xE008, offset: 0xE008, size: 0x8, addend: 0x0, symName: __ZNSt3__19allocatorIxEC2B7v160006Ev, symObjAddr: 0x760, symBinAddr: 0x100003124, symSize: 0x2C }
  - { offsetInCU: 0xE031, offset: 0xE031, size: 0x8, addend: 0x0, symName: __ZNSt3__116__non_trivial_ifILb1ENS_9allocatorIxEEEC2B7v160006Ev, symObjAddr: 0x78C, symBinAddr: 0x100003150, symSize: 0x14 }
  - { offsetInCU: 0xE05A, offset: 0xE05A, size: 0x8, addend: 0x0, symName: __ZNSt3__16vectorIxNS_9allocatorIxEEED2B7v160006Ev, symObjAddr: 0x7A0, symBinAddr: 0x100003164, symSize: 0x44 }
  - { offsetInCU: 0xE083, offset: 0xE083, size: 0x8, addend: 0x0, symName: __ZNSt3__16vectorIxNS_9allocatorIxEEE16__destroy_vectorC1ERS3_, symObjAddr: 0x7E4, symBinAddr: 0x1000031A8, symSize: 0x34 }
  - { offsetInCU: 0xE0BB, offset: 0xE0BB, size: 0x8, addend: 0x0, symName: __ZNSt3__16vectorIxNS_9allocatorIxEEE16__destroy_vectorclB7v160006Ev, symObjAddr: 0x818, symBinAddr: 0x1000031DC, symSize: 0x9C }
  - { offsetInCU: 0xE0E0, offset: 0xE0E0, size: 0x8, addend: 0x0, symName: __ZNSt3__16vectorIxNS_9allocatorIxEEE16__destroy_vectorC2ERS3_, symObjAddr: 0x8B4, symBinAddr: 0x100003278, symSize: 0x20 }
  - { offsetInCU: 0xE118, offset: 0xE118, size: 0x8, addend: 0x0, symName: __ZNKSt3__16vectorIxNS_9allocatorIxEEE17__annotate_deleteB7v160006Ev, symObjAddr: 0x8D4, symBinAddr: 0x100003298, symSize: 0xB8 }
  - { offsetInCU: 0xE13D, offset: 0xE13D, size: 0x8, addend: 0x0, symName: __ZNSt3__16vectorIxNS_9allocatorIxEEE7__clearB7v160006Ev, symObjAddr: 0x99C, symBinAddr: 0x100003360, symSize: 0x28 }
  - { offsetInCU: 0xE162, offset: 0xE162, size: 0x8, addend: 0x0, symName: __ZNSt3__116allocator_traitsINS_9allocatorIxEEE10deallocateB7v160006ERS2_Pxm, symObjAddr: 0x9C4, symBinAddr: 0x100003388, symSize: 0x34 }
  - { offsetInCU: 0xE1A4, offset: 0xE1A4, size: 0x8, addend: 0x0, symName: __ZNSt3__16vectorIxNS_9allocatorIxEEE7__allocB7v160006Ev, symObjAddr: 0x9F8, symBinAddr: 0x1000033BC, symSize: 0x28 }
  - { offsetInCU: 0xE1C9, offset: 0xE1C9, size: 0x8, addend: 0x0, symName: __ZNKSt3__16vectorIxNS_9allocatorIxEEE8capacityB7v160006Ev, symObjAddr: 0xA20, symBinAddr: 0x1000033E4, symSize: 0x40 }
  - { offsetInCU: 0xE1EE, offset: 0xE1EE, size: 0x8, addend: 0x0, symName: __ZNKSt3__16vectorIxNS_9allocatorIxEEE31__annotate_contiguous_containerB7v160006EPKvS5_S5_S5_, symObjAddr: 0xA60, symBinAddr: 0x100003424, symSize: 0x20 }
  - { offsetInCU: 0xE23F, offset: 0xE23F, size: 0x8, addend: 0x0, symName: __ZNKSt3__16vectorIxNS_9allocatorIxEEE4dataB7v160006Ev, symObjAddr: 0xA80, symBinAddr: 0x100003444, symSize: 0x28 }
  - { offsetInCU: 0xE264, offset: 0xE264, size: 0x8, addend: 0x0, symName: __ZNKSt3__16vectorIxNS_9allocatorIxEEE4sizeB7v160006Ev, symObjAddr: 0xAA8, symBinAddr: 0x10000346C, symSize: 0x28 }
  - { offsetInCU: 0xE289, offset: 0xE289, size: 0x8, addend: 0x0, symName: __ZNSt3__16vectorIxNS_9allocatorIxEEE22__base_destruct_at_endB7v160006EPx, symObjAddr: 0xAE4, symBinAddr: 0x1000034A8, symSize: 0x8C }
  - { offsetInCU: 0xE2CC, offset: 0xE2CC, size: 0x8, addend: 0x0, symName: __ZNSt3__116allocator_traitsINS_9allocatorIxEEE7destroyB7v160006IxvEEvRS2_PT_, symObjAddr: 0xB70, symBinAddr: 0x100003534, symSize: 0x2C }
  - { offsetInCU: 0xE309, offset: 0xE309, size: 0x8, addend: 0x0, symName: __ZNSt3__19allocatorIxE7destroyB7v160006EPx, symObjAddr: 0xB9C, symBinAddr: 0x100003560, symSize: 0x14 }
  - { offsetInCU: 0xE33C, offset: 0xE33C, size: 0x8, addend: 0x0, symName: __ZNSt3__19allocatorIxE10deallocateB7v160006EPxm, symObjAddr: 0xBB0, symBinAddr: 0x100003574, symSize: 0x40 }
  - { offsetInCU: 0xE37D, offset: 0xE37D, size: 0x8, addend: 0x0, symName: __ZNSt3__117__compressed_pairIPxNS_9allocatorIxEEE6secondB7v160006Ev, symObjAddr: 0xD18, symBinAddr: 0x1000036DC, symSize: 0x24 }
  - { offsetInCU: 0xE3A2, offset: 0xE3A2, size: 0x8, addend: 0x0, symName: __ZNSt3__122__compressed_pair_elemINS_9allocatorIxEELi1ELb1EE5__getB7v160006Ev, symObjAddr: 0xD3C, symBinAddr: 0x100003700, symSize: 0x14 }
  - { offsetInCU: 0xE3C7, offset: 0xE3C7, size: 0x8, addend: 0x0, symName: __ZNKSt3__16vectorIxNS_9allocatorIxEEE9__end_capB7v160006Ev, symObjAddr: 0xD50, symBinAddr: 0x100003714, symSize: 0x28 }
  - { offsetInCU: 0xE3EC, offset: 0xE3EC, size: 0x8, addend: 0x0, symName: __ZNKSt3__117__compressed_pairIPxNS_9allocatorIxEEE5firstB7v160006Ev, symObjAddr: 0xD78, symBinAddr: 0x10000373C, symSize: 0x24 }
  - { offsetInCU: 0xE411, offset: 0xE411, size: 0x8, addend: 0x0, symName: __ZNKSt3__122__compressed_pair_elemIPxLi0ELb0EE5__getB7v160006Ev, symObjAddr: 0xD9C, symBinAddr: 0x100003760, symSize: 0x14 }
  - { offsetInCU: 0xE436, offset: 0xE436, size: 0x8, addend: 0x0, symName: __ZNSt3__16vectorIxNS_9allocatorIxEEE9__end_capB7v160006Ev, symObjAddr: 0xDB0, symBinAddr: 0x100003774, symSize: 0x28 }
  - { offsetInCU: 0xE45B, offset: 0xE45B, size: 0x8, addend: 0x0, symName: __ZNSt3__16vectorIxNS_9allocatorIxEEE22__construct_one_at_endB7v160006IJRKxEEEvDpOT_, symObjAddr: 0xDD8, symBinAddr: 0x10000379C, symSize: 0x90 }
  - { offsetInCU: 0xE4A9, offset: 0xE4A9, size: 0x8, addend: 0x0, symName: __ZNSt3__16vectorIxNS_9allocatorIxEEE21__push_back_slow_pathIRKxEEvOT_, symObjAddr: 0xE68, symBinAddr: 0x10000382C, symSize: 0xD8 }
  - { offsetInCU: 0xE505, offset: 0xE505, size: 0x8, addend: 0x0, symName: __ZNSt3__117__compressed_pairIPxNS_9allocatorIxEEE5firstB7v160006Ev, symObjAddr: 0xF40, symBinAddr: 0x100003904, symSize: 0x24 }
  - { offsetInCU: 0xE52A, offset: 0xE52A, size: 0x8, addend: 0x0, symName: __ZNSt3__122__compressed_pair_elemIPxLi0ELb0EE5__getB7v160006Ev, symObjAddr: 0xF64, symBinAddr: 0x100003928, symSize: 0x14 }
  - { offsetInCU: 0xE568, offset: 0xE568, size: 0x8, addend: 0x0, symName: __ZNSt3__16vectorIxNS_9allocatorIxEEE21_ConstructTransactionC1B7v160006ERS3_m, symObjAddr: 0xF78, symBinAddr: 0x10000393C, symSize: 0x3C }
  - { offsetInCU: 0xE5AF, offset: 0xE5AF, size: 0x8, addend: 0x0, symName: __ZNSt3__116allocator_traitsINS_9allocatorIxEEE9constructB7v160006IxJRKxEvEEvRS2_PT_DpOT0_, symObjAddr: 0xFB4, symBinAddr: 0x100003978, symSize: 0x34 }
  - { offsetInCU: 0xE606, offset: 0xE606, size: 0x8, addend: 0x0, symName: __ZNSt3__16vectorIxNS_9allocatorIxEEE21_ConstructTransactionD1B7v160006Ev, symObjAddr: 0xFE8, symBinAddr: 0x1000039AC, symSize: 0x2C }
  - { offsetInCU: 0xE62F, offset: 0xE62F, size: 0x8, addend: 0x0, symName: __ZNSt3__16vectorIxNS_9allocatorIxEEE21_ConstructTransactionC2B7v160006ERS3_m, symObjAddr: 0x1014, symBinAddr: 0x1000039D8, symSize: 0x44 }
  - { offsetInCU: 0xE676, offset: 0xE676, size: 0x8, addend: 0x0, symName: __ZNSt3__19allocatorIxE9constructB7v160006IxJRKxEEEvPT_DpOT0_, symObjAddr: 0x1058, symBinAddr: 0x100003A1C, symSize: 0x28 }
  - { offsetInCU: 0xE6CB, offset: 0xE6CB, size: 0x8, addend: 0x0, symName: __ZNSt3__16vectorIxNS_9allocatorIxEEE21_ConstructTransactionD2B7v160006Ev, symObjAddr: 0x1080, symBinAddr: 0x100003A44, symSize: 0x20 }
  - { offsetInCU: 0xE6F4, offset: 0xE6F4, size: 0x8, addend: 0x0, symName: __ZNKSt3__16vectorIxNS_9allocatorIxEEE11__recommendB7v160006Em, symObjAddr: 0x10A0, symBinAddr: 0x100003A64, symSize: 0xB4 }
  - { offsetInCU: 0xE747, offset: 0xE747, size: 0x8, addend: 0x0, symName: __ZNSt3__114__split_bufferIxRNS_9allocatorIxEEEC1EmmS3_, symObjAddr: 0x1154, symBinAddr: 0x100003B18, symSize: 0x44 }
  - { offsetInCU: 0xE79C, offset: 0xE79C, size: 0x8, addend: 0x0, symName: __ZNSt3__114__split_bufferIxRNS_9allocatorIxEEED1Ev, symObjAddr: 0x12B0, symBinAddr: 0x100003C74, symSize: 0x2C }
  - { offsetInCU: 0xE7C7, offset: 0xE7C7, size: 0x8, addend: 0x0, symName: __ZNKSt3__16vectorIxNS_9allocatorIxEEE8max_sizeEv, symObjAddr: 0x12DC, symBinAddr: 0x100003CA0, symSize: 0x60 }
  - { offsetInCU: 0xE7ED, offset: 0xE7ED, size: 0x8, addend: 0x0, symName: __ZNKSt3__16vectorIxNS_9allocatorIxEEE20__throw_length_errorB7v160006Ev, symObjAddr: 0x133C, symBinAddr: 0x100003D00, symSize: 0x1C }
  - { offsetInCU: 0xE81C, offset: 0xE81C, size: 0x8, addend: 0x0, symName: __ZNSt3__116allocator_traitsINS_9allocatorIxEEE8max_sizeB7v160006IS2_vEEmRKS2_, symObjAddr: 0x13B0, symBinAddr: 0x100003D74, symSize: 0x24 }
  - { offsetInCU: 0xE84A, offset: 0xE84A, size: 0x8, addend: 0x0, symName: __ZNKSt3__16vectorIxNS_9allocatorIxEEE7__allocB7v160006Ev, symObjAddr: 0x13D4, symBinAddr: 0x100003D98, symSize: 0x28 }
  - { offsetInCU: 0xE86F, offset: 0xE86F, size: 0x8, addend: 0x0, symName: __ZNSt3__114numeric_limitsIlE3maxB7v160006Ev, symObjAddr: 0x13FC, symBinAddr: 0x100003DC0, symSize: 0x14 }
  - { offsetInCU: 0xE88D, offset: 0xE88D, size: 0x8, addend: 0x0, symName: __ZNKSt3__16__lessImmEclB7v160006ERKmS3_, symObjAddr: 0x1464, symBinAddr: 0x100003E28, symSize: 0x34 }
  - { offsetInCU: 0xE8CE, offset: 0xE8CE, size: 0x8, addend: 0x0, symName: __ZNKSt3__19allocatorIxE8max_sizeB7v160006Ev, symObjAddr: 0x1498, symBinAddr: 0x100003E5C, symSize: 0x14 }
  - { offsetInCU: 0xE8F3, offset: 0xE8F3, size: 0x8, addend: 0x0, symName: __ZNKSt3__117__compressed_pairIPxNS_9allocatorIxEEE6secondB7v160006Ev, symObjAddr: 0x14AC, symBinAddr: 0x100003E70, symSize: 0x24 }
  - { offsetInCU: 0xE918, offset: 0xE918, size: 0x8, addend: 0x0, symName: __ZNKSt3__122__compressed_pair_elemINS_9allocatorIxEELi1ELb1EE5__getB7v160006Ev, symObjAddr: 0x14D0, symBinAddr: 0x100003E94, symSize: 0x14 }
  - { offsetInCU: 0xE93D, offset: 0xE93D, size: 0x8, addend: 0x0, symName: __ZNSt3__123__libcpp_numeric_limitsIlLb1EE3maxB7v160006Ev, symObjAddr: 0x14E4, symBinAddr: 0x100003EA8, symSize: 0x8 }
  - { offsetInCU: 0xE951, offset: 0xE951, size: 0x8, addend: 0x0, symName: __ZNSt12length_errorC1B7v160006EPKc, symObjAddr: 0x1550, symBinAddr: 0x100003F14, symSize: 0x34 }
  - { offsetInCU: 0xE988, offset: 0xE988, size: 0x8, addend: 0x0, symName: __ZNSt12length_errorC2B7v160006EPKc, symObjAddr: 0x1584, symBinAddr: 0x100003F48, symSize: 0x4C }
  - { offsetInCU: 0xE9BF, offset: 0xE9BF, size: 0x8, addend: 0x0, symName: __ZNSt3__114__split_bufferIxRNS_9allocatorIxEEEC2EmmS3_, symObjAddr: 0x1624, symBinAddr: 0x100003FE8, symSize: 0xD4 }
  - { offsetInCU: 0xEA31, offset: 0xEA31, size: 0x8, addend: 0x0, symName: __ZNSt3__117__compressed_pairIPxRNS_9allocatorIxEEEC1B7v160006IDnS4_EEOT_OT0_, symObjAddr: 0x16F8, symBinAddr: 0x1000040BC, symSize: 0x3C }
  - { offsetInCU: 0xEA88, offset: 0xEA88, size: 0x8, addend: 0x0, symName: __ZNSt3__114__split_bufferIxRNS_9allocatorIxEEE7__allocB7v160006Ev, symObjAddr: 0x1774, symBinAddr: 0x100004138, symSize: 0x28 }
  - { offsetInCU: 0xEAAD, offset: 0xEAAD, size: 0x8, addend: 0x0, symName: __ZNSt3__114__split_bufferIxRNS_9allocatorIxEEE9__end_capB7v160006Ev, symObjAddr: 0x179C, symBinAddr: 0x100004160, symSize: 0x28 }
  - { offsetInCU: 0xEAD2, offset: 0xEAD2, size: 0x8, addend: 0x0, symName: __ZNSt3__117__compressed_pairIPxRNS_9allocatorIxEEEC2B7v160006IDnS4_EEOT_OT0_, symObjAddr: 0x17C4, symBinAddr: 0x100004188, symSize: 0x48 }
  - { offsetInCU: 0xEB29, offset: 0xEB29, size: 0x8, addend: 0x0, symName: __ZNSt3__122__compressed_pair_elemIRNS_9allocatorIxEELi1ELb0EEC2B7v160006IS3_vEEOT_, symObjAddr: 0x180C, symBinAddr: 0x1000041D0, symSize: 0x20 }
  - { offsetInCU: 0xEB6A, offset: 0xEB6A, size: 0x8, addend: 0x0, symName: __ZNSt3__19allocatorIxE8allocateB7v160006Em, symObjAddr: 0x182C, symBinAddr: 0x1000041F0, symSize: 0x58 }
  - { offsetInCU: 0xEB9D, offset: 0xEB9D, size: 0x8, addend: 0x0, symName: __ZNSt3__117__compressed_pairIPxRNS_9allocatorIxEEE6secondB7v160006Ev, symObjAddr: 0x1968, symBinAddr: 0x10000432C, symSize: 0x28 }
  - { offsetInCU: 0xEBC2, offset: 0xEBC2, size: 0x8, addend: 0x0, symName: __ZNSt3__122__compressed_pair_elemIRNS_9allocatorIxEELi1ELb0EE5__getB7v160006Ev, symObjAddr: 0x1990, symBinAddr: 0x100004354, symSize: 0x18 }
  - { offsetInCU: 0xEBE7, offset: 0xEBE7, size: 0x8, addend: 0x0, symName: __ZNSt3__117__compressed_pairIPxRNS_9allocatorIxEEE5firstB7v160006Ev, symObjAddr: 0x19A8, symBinAddr: 0x10000436C, symSize: 0x24 }
  - { offsetInCU: 0xEC0C, offset: 0xEC0C, size: 0x8, addend: 0x0, symName: __ZNSt3__116reverse_iteratorIPxEC1B7v160006ES1_, symObjAddr: 0x1A44, symBinAddr: 0x100004408, symSize: 0x34 }
  - { offsetInCU: 0xEC43, offset: 0xEC43, size: 0x8, addend: 0x0, symName: __ZNKSt3__116reverse_iteratorIPxE4baseB7v160006Ev, symObjAddr: 0x1A78, symBinAddr: 0x10000443C, symSize: 0x18 }
  - { offsetInCU: 0xEC68, offset: 0xEC68, size: 0x8, addend: 0x0, symName: __ZNKSt3__16vectorIxNS_9allocatorIxEEE14__annotate_newB7v160006Em, symObjAddr: 0x1ACC, symBinAddr: 0x100004490, symSize: 0xAC }
  - { offsetInCU: 0xECBF, offset: 0xECBF, size: 0x8, addend: 0x0, symName: __ZNKSt3__111__move_loopINS_17_ClassicAlgPolicyEEclB7v160006INS_16reverse_iteratorIPxEES6_S6_EENS_4pairIT_T1_EES8_T0_S9_, symObjAddr: 0x1E78, symBinAddr: 0x10000483C, symSize: 0xA0 }
  - { offsetInCU: 0xED2E, offset: 0xED2E, size: 0x8, addend: 0x0, symName: __ZNSt3__18_IterOpsINS_17_ClassicAlgPolicyEE11__iter_moveB7v160006IRNS_16reverse_iteratorIPxEEEENS_9enable_ifIXsr12is_referenceIDTdeclsr3stdE7declvalIRT_EEEEE5valueEDTclsr3stdE4movedeclsr3stdE7declvalISA_EEEEE4typeEOS9_, symObjAddr: 0x20AC, symBinAddr: 0x100004A70, symSize: 0x28 }
  - { offsetInCU: 0xED5A, offset: 0xED5A, size: 0x8, addend: 0x0, symName: __ZNKSt3__116reverse_iteratorIPxEdeB7v160006Ev, symObjAddr: 0x20D4, symBinAddr: 0x100004A98, symSize: 0x28 }
  - { offsetInCU: 0xED8D, offset: 0xED8D, size: 0x8, addend: 0x0, symName: __ZNSt3__116reverse_iteratorIPxEppB7v160006Ev, symObjAddr: 0x20FC, symBinAddr: 0x100004AC0, symSize: 0x20 }
  - { offsetInCU: 0xEDB2, offset: 0xEDB2, size: 0x8, addend: 0x0, symName: __ZNSt3__18_IterOpsINS_17_ClassicAlgPolicyEE25__validate_iter_referenceB7v160006IRNS_16reverse_iteratorIPxEEEEvv, symObjAddr: 0x211C, symBinAddr: 0x100004AE0, symSize: 0x4 }
  - { offsetInCU: 0xEDD0, offset: 0xEDD0, size: 0x8, addend: 0x0, symName: __ZNSt3__118__unwrap_iter_implINS_16reverse_iteratorIPxEELb0EE8__unwrapB7v160006ES3_, symObjAddr: 0x2120, symBinAddr: 0x100004AE4, symSize: 0x24 }
  - { offsetInCU: 0xEDF8, offset: 0xEDF8, size: 0x8, addend: 0x0, symName: __ZNSt3__14pairINS_16reverse_iteratorIPxEES3_EC1B7v160006IS3_S3_LPv0EEEOT_OT0_, symObjAddr: 0x2144, symBinAddr: 0x100004B08, symSize: 0x3C }
  - { offsetInCU: 0xEE55, offset: 0xEE55, size: 0x8, addend: 0x0, symName: __ZNSt3__14pairINS_16reverse_iteratorIPxEES3_EC2B7v160006IS3_S3_LPv0EEEOT_OT0_, symObjAddr: 0x2180, symBinAddr: 0x100004B44, symSize: 0x34 }
  - { offsetInCU: 0xEEB2, offset: 0xEEB2, size: 0x8, addend: 0x0, symName: __ZNSt3__118__unwrap_iter_implINS_16reverse_iteratorIPxEELb0EE8__rewrapB7v160006ES3_S3_, symObjAddr: 0x21B4, symBinAddr: 0x100004B78, symSize: 0x2C }
  - { offsetInCU: 0xEEE0, offset: 0xEEE0, size: 0x8, addend: 0x0, symName: __ZNSt3__116reverse_iteratorIPxEC2B7v160006ES1_, symObjAddr: 0x21E0, symBinAddr: 0x100004BA4, symSize: 0x28 }
  - { offsetInCU: 0xEF17, offset: 0xEF17, size: 0x8, addend: 0x0, symName: __ZNSt3__114__split_bufferIxRNS_9allocatorIxEEED2Ev, symObjAddr: 0x2208, symBinAddr: 0x100004BCC, symSize: 0x8C }
  - { offsetInCU: 0xEF42, offset: 0xEF42, size: 0x8, addend: 0x0, symName: __ZNSt3__114__split_bufferIxRNS_9allocatorIxEEE5clearB7v160006Ev, symObjAddr: 0x2294, symBinAddr: 0x100004C58, symSize: 0x28 }
  - { offsetInCU: 0xEF67, offset: 0xEF67, size: 0x8, addend: 0x0, symName: __ZNKSt3__114__split_bufferIxRNS_9allocatorIxEEE8capacityB7v160006Ev, symObjAddr: 0x22BC, symBinAddr: 0x100004C80, symSize: 0x40 }
  - { offsetInCU: 0xEF8C, offset: 0xEF8C, size: 0x8, addend: 0x0, symName: __ZNSt3__114__split_bufferIxRNS_9allocatorIxEEE17__destruct_at_endB7v160006EPx, symObjAddr: 0x22FC, symBinAddr: 0x100004CC0, symSize: 0x2C }
  - { offsetInCU: 0xEFBF, offset: 0xEFBF, size: 0x8, addend: 0x0, symName: __ZNSt3__114__split_bufferIxRNS_9allocatorIxEEE17__destruct_at_endB7v160006EPxNS_17integral_constantIbLb0EEE, symObjAddr: 0x2328, symBinAddr: 0x100004CEC, symSize: 0x80 }
  - { offsetInCU: 0xEFFE, offset: 0xEFFE, size: 0x8, addend: 0x0, symName: __ZNKSt3__114__split_bufferIxRNS_9allocatorIxEEE9__end_capB7v160006Ev, symObjAddr: 0x23A8, symBinAddr: 0x100004D6C, symSize: 0x28 }
  - { offsetInCU: 0xF023, offset: 0xF023, size: 0x8, addend: 0x0, symName: __ZNKSt3__117__compressed_pairIPxRNS_9allocatorIxEEE5firstB7v160006Ev, symObjAddr: 0x23D0, symBinAddr: 0x100004D94, symSize: 0x24 }
  - { offsetInCU: 0xF048, offset: 0xF048, size: 0x8, addend: 0x0, symName: __ZNSt3__16vectorIxNS_9allocatorIxEEE11__make_iterB7v160006EPx, symObjAddr: 0x23F4, symBinAddr: 0x100004DB8, symSize: 0x34 }
  - { offsetInCU: 0xF07C, offset: 0xF07C, size: 0x8, addend: 0x0, symName: __ZNSt3__111__wrap_iterIPxEC1B7v160006EPKvS1_, symObjAddr: 0x2428, symBinAddr: 0x100004DEC, symSize: 0x3C }
  - { offsetInCU: 0xF0C1, offset: 0xF0C1, size: 0x8, addend: 0x0, symName: __ZNSt3__111__wrap_iterIPxEC2B7v160006EPKvS1_, symObjAddr: 0x2464, symBinAddr: 0x100004E28, symSize: 0x24 }
  - { offsetInCU: 0xF106, offset: 0xF106, size: 0x8, addend: 0x0, symName: __ZNSt3__118__unwrap_iter_implINS_11__wrap_iterIPxEELb1EE8__unwrapB7v160006ES3_, symObjAddr: 0x258C, symBinAddr: 0x100004F50, symSize: 0x28 }
  - { offsetInCU: 0xF133, offset: 0xF133, size: 0x8, addend: 0x0, symName: __ZNSt3__119__to_address_helperINS_11__wrap_iterIPxEEvE6__callB7v160006ERKS3_, symObjAddr: 0x25D8, symBinAddr: 0x100004F9C, symSize: 0x30 }
  - { offsetInCU: 0xF156, offset: 0xF156, size: 0x8, addend: 0x0, symName: __ZNSt3__114pointer_traitsINS_11__wrap_iterIPxEEE10to_addressB7v160006ES3_, symObjAddr: 0x2608, symBinAddr: 0x100004FCC, symSize: 0x2C }
  - { offsetInCU: 0xF17A, offset: 0xF17A, size: 0x8, addend: 0x0, symName: __ZNKSt3__111__wrap_iterIPxE4baseB7v160006Ev, symObjAddr: 0x2634, symBinAddr: 0x100004FF8, symSize: 0x18 }
  - { offsetInCU: 0xF19F, offset: 0xF19F, size: 0x8, addend: 0x0, symName: __ZNSt3__13mapINS_4pairIiiEEiNS_4lessIS2_EENS_9allocatorINS1_IKS2_iEEEEEC2B7v160006Ev, symObjAddr: 0x264C, symBinAddr: 0x100005010, symSize: 0x40 }
  - { offsetInCU: 0xF1C8, offset: 0xF1C8, size: 0x8, addend: 0x0, symName: __ZNSt3__119__map_value_compareINS_4pairIiiEENS_12__value_typeIS2_iEENS_4lessIS2_EELb1EEC1B7v160006ES6_, symObjAddr: 0x268C, symBinAddr: 0x100005050, symSize: 0x2C }
  - { offsetInCU: 0xF200, offset: 0xF200, size: 0x8, addend: 0x0, symName: __ZNSt3__16__treeINS_12__value_typeINS_4pairIiiEEiEENS_19__map_value_compareIS3_S4_NS_4lessIS3_EELb1EEENS_9allocatorIS4_EEEC1ERKS8_, symObjAddr: 0x26B8, symBinAddr: 0x10000507C, symSize: 0x34 }
  - { offsetInCU: 0xF23A, offset: 0xF23A, size: 0x8, addend: 0x0, symName: __ZNSt3__119__map_value_compareINS_4pairIiiEENS_12__value_typeIS2_iEENS_4lessIS2_EELb1EEC2B7v160006ES6_, symObjAddr: 0x26EC, symBinAddr: 0x1000050B0, symSize: 0x14 }
  - { offsetInCU: 0xF272, offset: 0xF272, size: 0x8, addend: 0x0, symName: __ZNSt3__16__treeINS_12__value_typeINS_4pairIiiEEiEENS_19__map_value_compareIS3_S4_NS_4lessIS3_EELb1EEENS_9allocatorIS4_EEEC2ERKS8_, symObjAddr: 0x2700, symBinAddr: 0x1000050C4, symSize: 0x7C }
  - { offsetInCU: 0xF2AC, offset: 0xF2AC, size: 0x8, addend: 0x0, symName: __ZNSt3__117__compressed_pairINS_15__tree_end_nodeIPNS_16__tree_node_baseIPvEEEENS_9allocatorINS_11__tree_nodeINS_12__value_typeINS_4pairIiiEEiEES3_EEEEEC1B7v160006ILb1EvEEv, symObjAddr: 0x277C, symBinAddr: 0x100005140, symSize: 0x2C }
  - { offsetInCU: 0xF2E5, offset: 0xF2E5, size: 0x8, addend: 0x0, symName: __ZNSt3__117__compressed_pairImNS_19__map_value_compareINS_4pairIiiEENS_12__value_typeIS3_iEENS_4lessIS3_EELb1EEEEC1B7v160006IiRKS8_EEOT_OT0_, symObjAddr: 0x27A8, symBinAddr: 0x10000516C, symSize: 0x3C }
  - { offsetInCU: 0xF33C, offset: 0xF33C, size: 0x8, addend: 0x0, symName: __ZNSt3__16__treeINS_12__value_typeINS_4pairIiiEEiEENS_19__map_value_compareIS3_S4_NS_4lessIS3_EELb1EEENS_9allocatorIS4_EEE10__end_nodeB7v160006Ev, symObjAddr: 0x27E4, symBinAddr: 0x1000051A8, symSize: 0x2C }
  - { offsetInCU: 0xF361, offset: 0xF361, size: 0x8, addend: 0x0, symName: __ZNSt3__16__treeINS_12__value_typeINS_4pairIiiEEiEENS_19__map_value_compareIS3_S4_NS_4lessIS3_EELb1EEENS_9allocatorIS4_EEE12__begin_nodeB7v160006Ev, symObjAddr: 0x2810, symBinAddr: 0x1000051D4, symSize: 0x14 }
  - { offsetInCU: 0xF386, offset: 0xF386, size: 0x8, addend: 0x0, symName: __ZNSt3__117__compressed_pairINS_15__tree_end_nodeIPNS_16__tree_node_baseIPvEEEENS_9allocatorINS_11__tree_nodeINS_12__value_typeINS_4pairIiiEEiEES3_EEEEEC2B7v160006ILb1EvEEv, symObjAddr: 0x2824, symBinAddr: 0x1000051E8, symSize: 0x34 }
  - { offsetInCU: 0xF3BA, offset: 0xF3BA, size: 0x8, addend: 0x0, symName: __ZNSt3__122__compressed_pair_elemINS_15__tree_end_nodeIPNS_16__tree_node_baseIPvEEEELi0ELb0EEC2B7v160006ENS_16__value_init_tagE, symObjAddr: 0x2858, symBinAddr: 0x10000521C, symSize: 0x2C }
  - { offsetInCU: 0xF3EE, offset: 0xF3EE, size: 0x8, addend: 0x0, symName: __ZNSt3__122__compressed_pair_elemINS_9allocatorINS_11__tree_nodeINS_12__value_typeINS_4pairIiiEEiEEPvEEEELi1ELb1EEC2B7v160006ENS_16__value_init_tagE, symObjAddr: 0x2884, symBinAddr: 0x100005248, symSize: 0x2C }
  - { offsetInCU: 0xF422, offset: 0xF422, size: 0x8, addend: 0x0, symName: __ZNSt3__115__tree_end_nodeIPNS_16__tree_node_baseIPvEEEC1B7v160006Ev, symObjAddr: 0x28B0, symBinAddr: 0x100005274, symSize: 0x2C }
  - { offsetInCU: 0xF44B, offset: 0xF44B, size: 0x8, addend: 0x0, symName: __ZNSt3__115__tree_end_nodeIPNS_16__tree_node_baseIPvEEEC2B7v160006Ev, symObjAddr: 0x28DC, symBinAddr: 0x1000052A0, symSize: 0x18 }
  - { offsetInCU: 0xF474, offset: 0xF474, size: 0x8, addend: 0x0, symName: __ZNSt3__19allocatorINS_11__tree_nodeINS_12__value_typeINS_4pairIiiEEiEEPvEEEC2B7v160006Ev, symObjAddr: 0x28F4, symBinAddr: 0x1000052B8, symSize: 0x2C }
  - { offsetInCU: 0xF49D, offset: 0xF49D, size: 0x8, addend: 0x0, symName: __ZNSt3__116__non_trivial_ifILb1ENS_9allocatorINS_11__tree_nodeINS_12__value_typeINS_4pairIiiEEiEEPvEEEEEC2B7v160006Ev, symObjAddr: 0x2920, symBinAddr: 0x1000052E4, symSize: 0x14 }
  - { offsetInCU: 0xF4C6, offset: 0xF4C6, size: 0x8, addend: 0x0, symName: __ZNSt3__117__compressed_pairImNS_19__map_value_compareINS_4pairIiiEENS_12__value_typeIS3_iEENS_4lessIS3_EELb1EEEEC2B7v160006IiRKS8_EEOT_OT0_, symObjAddr: 0x2934, symBinAddr: 0x1000052F8, symSize: 0x44 }
  - { offsetInCU: 0xF51D, offset: 0xF51D, size: 0x8, addend: 0x0, symName: __ZNSt3__122__compressed_pair_elemImLi0ELb0EEC2B7v160006IivEEOT_, symObjAddr: 0x2978, symBinAddr: 0x10000533C, symSize: 0x24 }
  - { offsetInCU: 0xF55E, offset: 0xF55E, size: 0x8, addend: 0x0, symName: __ZNSt3__122__compressed_pair_elemINS_19__map_value_compareINS_4pairIiiEENS_12__value_typeIS3_iEENS_4lessIS3_EELb1EEELi1ELb1EEC2B7v160006IRKS8_vEEOT_, symObjAddr: 0x299C, symBinAddr: 0x100005360, symSize: 0x18 }
  - { offsetInCU: 0xF59F, offset: 0xF59F, size: 0x8, addend: 0x0, symName: __ZNSt3__114pointer_traitsIPNS_15__tree_end_nodeIPNS_16__tree_node_baseIPvEEEEE10pointer_toB7v160006ERS6_, symObjAddr: 0x29B4, symBinAddr: 0x100005378, symSize: 0x14 }
  - { offsetInCU: 0xF5C2, offset: 0xF5C2, size: 0x8, addend: 0x0, symName: __ZNSt3__117__compressed_pairINS_15__tree_end_nodeIPNS_16__tree_node_baseIPvEEEENS_9allocatorINS_11__tree_nodeINS_12__value_typeINS_4pairIiiEEiEES3_EEEEE5firstB7v160006Ev, symObjAddr: 0x29C8, symBinAddr: 0x10000538C, symSize: 0x24 }
  - { offsetInCU: 0xF5E7, offset: 0xF5E7, size: 0x8, addend: 0x0, symName: __ZNSt3__122__compressed_pair_elemINS_15__tree_end_nodeIPNS_16__tree_node_baseIPvEEEELi0ELb0EE5__getB7v160006Ev, symObjAddr: 0x29EC, symBinAddr: 0x1000053B0, symSize: 0x14 }
  - { offsetInCU: 0xF60C, offset: 0xF60C, size: 0x8, addend: 0x0, symName: __ZNSt3__13mapINS_4pairIiiEEiNS_4lessIS2_EENS_9allocatorINS1_IKS2_iEEEEED2B7v160006Ev, symObjAddr: 0x2A00, symBinAddr: 0x1000053C4, symSize: 0x2C }
  - { offsetInCU: 0xF635, offset: 0xF635, size: 0x8, addend: 0x0, symName: __ZNSt3__16__treeINS_12__value_typeINS_4pairIiiEEiEENS_19__map_value_compareIS3_S4_NS_4lessIS3_EELb1EEENS_9allocatorIS4_EEED1Ev, symObjAddr: 0x2A2C, symBinAddr: 0x1000053F0, symSize: 0x2C }
  - { offsetInCU: 0xF660, offset: 0xF660, size: 0x8, addend: 0x0, symName: __ZNSt3__16__treeINS_12__value_typeINS_4pairIiiEEiEENS_19__map_value_compareIS3_S4_NS_4lessIS3_EELb1EEENS_9allocatorIS4_EEED2Ev, symObjAddr: 0x2A58, symBinAddr: 0x10000541C, symSize: 0x38 }
  - { offsetInCU: 0xF68B, offset: 0xF68B, size: 0x8, addend: 0x0, symName: __ZNSt3__16__treeINS_12__value_typeINS_4pairIiiEEiEENS_19__map_value_compareIS3_S4_NS_4lessIS3_EELb1EEENS_9allocatorIS4_EEE7destroyEPNS_11__tree_nodeIS4_PvEE, symObjAddr: 0x2A90, symBinAddr: 0x100005454, symSize: 0xAC }
  - { offsetInCU: 0xF6D5, offset: 0xF6D5, size: 0x8, addend: 0x0, symName: __ZNKSt3__16__treeINS_12__value_typeINS_4pairIiiEEiEENS_19__map_value_compareIS3_S4_NS_4lessIS3_EELb1EEENS_9allocatorIS4_EEE6__rootB7v160006Ev, symObjAddr: 0x2B3C, symBinAddr: 0x100005500, symSize: 0x28 }
  - { offsetInCU: 0xF6FA, offset: 0xF6FA, size: 0x8, addend: 0x0, symName: __ZNSt3__16__treeINS_12__value_typeINS_4pairIiiEEiEENS_19__map_value_compareIS3_S4_NS_4lessIS3_EELb1EEENS_9allocatorIS4_EEE12__node_allocB7v160006Ev, symObjAddr: 0x2B64, symBinAddr: 0x100005528, symSize: 0x28 }
  - { offsetInCU: 0xF71F, offset: 0xF71F, size: 0x8, addend: 0x0, symName: __ZNSt3__116allocator_traitsINS_9allocatorINS_11__tree_nodeINS_12__value_typeINS_4pairIiiEEiEEPvEEEEE7destroyB7v160006INS4_IKS5_iEEvvEEvRS9_PT_, symObjAddr: 0x2B8C, symBinAddr: 0x100005550, symSize: 0x14 }
  - { offsetInCU: 0xF759, offset: 0xF759, size: 0x8, addend: 0x0, symName: __ZNSt3__122__tree_key_value_typesINS_12__value_typeINS_4pairIiiEEiEEE9__get_ptrB7v160006ERS4_, symObjAddr: 0x2BA0, symBinAddr: 0x100005564, symSize: 0x24 }
  - { offsetInCU: 0xF77D, offset: 0xF77D, size: 0x8, addend: 0x0, symName: __ZNSt3__116allocator_traitsINS_9allocatorINS_11__tree_nodeINS_12__value_typeINS_4pairIiiEEiEEPvEEEEE10deallocateB7v160006ERS9_PS8_m, symObjAddr: 0x2BC4, symBinAddr: 0x100005588, symSize: 0x34 }
  - { offsetInCU: 0xF7BF, offset: 0xF7BF, size: 0x8, addend: 0x0, symName: __ZNSt3__117__compressed_pairINS_15__tree_end_nodeIPNS_16__tree_node_baseIPvEEEENS_9allocatorINS_11__tree_nodeINS_12__value_typeINS_4pairIiiEEiEES3_EEEEE6secondB7v160006Ev, symObjAddr: 0x2BF8, symBinAddr: 0x1000055BC, symSize: 0x24 }
  - { offsetInCU: 0xF7E4, offset: 0xF7E4, size: 0x8, addend: 0x0, symName: __ZNSt3__122__compressed_pair_elemINS_9allocatorINS_11__tree_nodeINS_12__value_typeINS_4pairIiiEEiEEPvEEEELi1ELb1EE5__getB7v160006Ev, symObjAddr: 0x2C1C, symBinAddr: 0x1000055E0, symSize: 0x14 }
  - { offsetInCU: 0xF809, offset: 0xF809, size: 0x8, addend: 0x0, symName: __ZNSt3__112__value_typeINS_4pairIiiEEiE11__get_valueB7v160006Ev, symObjAddr: 0x2C30, symBinAddr: 0x1000055F4, symSize: 0x24 }
  - { offsetInCU: 0xF82E, offset: 0xF82E, size: 0x8, addend: 0x0, symName: __ZNSt3__19allocatorINS_11__tree_nodeINS_12__value_typeINS_4pairIiiEEiEEPvEEE10deallocateB7v160006EPS7_m, symObjAddr: 0x2C8C, symBinAddr: 0x100005650, symSize: 0x44 }
  - { offsetInCU: 0xF86F, offset: 0xF86F, size: 0x8, addend: 0x0, symName: __ZNKSt3__16__treeINS_12__value_typeINS_4pairIiiEEiEENS_19__map_value_compareIS3_S4_NS_4lessIS3_EELb1EEENS_9allocatorIS4_EEE10__end_nodeB7v160006Ev, symObjAddr: 0x2CD0, symBinAddr: 0x100005694, symSize: 0x2C }
  - { offsetInCU: 0xF894, offset: 0xF894, size: 0x8, addend: 0x0, symName: __ZNKSt3__117__compressed_pairINS_15__tree_end_nodeIPNS_16__tree_node_baseIPvEEEENS_9allocatorINS_11__tree_nodeINS_12__value_typeINS_4pairIiiEEiEES3_EEEEE5firstB7v160006Ev, symObjAddr: 0x2CFC, symBinAddr: 0x1000056C0, symSize: 0x24 }
  - { offsetInCU: 0xF8B9, offset: 0xF8B9, size: 0x8, addend: 0x0, symName: __ZNKSt3__122__compressed_pair_elemINS_15__tree_end_nodeIPNS_16__tree_node_baseIPvEEEELi0ELb0EE5__getB7v160006Ev, symObjAddr: 0x2D20, symBinAddr: 0x1000056E4, symSize: 0x14 }
  - { offsetInCU: 0xF8F2, offset: 0xF8F2, size: 0x8, addend: 0x0, symName: __ZNSt3__16__treeINS_12__value_typeINS_4pairIiiEEiEENS_19__map_value_compareIS3_S4_NS_4lessIS3_EELb1EEENS_9allocatorIS4_EEE25__emplace_unique_key_argsIS3_JRKNS_21piecewise_construct_tENS_5tupleIJOS3_EEENSG_IJEEEEEENS2_INS_15__tree_iteratorIS4_PNS_11__tree_nodeIS4_PvEElEEbEERKT_DpOT0_, symObjAddr: 0x2D34, symBinAddr: 0x1000056F8, symSize: 0x100 }
  - { offsetInCU: 0xF9C6, offset: 0xF9C6, size: 0x8, addend: 0x0, symName: __ZNKSt3__115__tree_iteratorINS_12__value_typeINS_4pairIiiEEiEEPNS_11__tree_nodeIS4_PvEElEptB7v160006Ev, symObjAddr: 0x2E64, symBinAddr: 0x100005828, symSize: 0x2C }
  - { offsetInCU: 0xF9EB, offset: 0xF9EB, size: 0x8, addend: 0x0, symName: __ZNSt3__16__treeINS_12__value_typeINS_4pairIiiEEiEENS_19__map_value_compareIS3_S4_NS_4lessIS3_EELb1EEENS_9allocatorIS4_EEE12__find_equalIS3_EERPNS_16__tree_node_baseIPvEERPNS_15__tree_end_nodeISG_EERKT_, symObjAddr: 0x2E90, symBinAddr: 0x100005854, symSize: 0x184 }
  - { offsetInCU: 0xFA56, offset: 0xFA56, size: 0x8, addend: 0x0, symName: __ZNSt3__16__treeINS_12__value_typeINS_4pairIiiEEiEENS_19__map_value_compareIS3_S4_NS_4lessIS3_EELb1EEENS_9allocatorIS4_EEE16__construct_nodeIJRKNS_21piecewise_construct_tENS_5tupleIJOS3_EEENSG_IJEEEEEENS_10unique_ptrINS_11__tree_nodeIS4_PvEENS_22__tree_node_destructorINS9_ISN_EEEEEEDpOT_, symObjAddr: 0x3014, symBinAddr: 0x1000059D8, symSize: 0x120 }
  - { offsetInCU: 0xFADD, offset: 0xFADD, size: 0x8, addend: 0x0, symName: __ZNSt3__16__treeINS_12__value_typeINS_4pairIiiEEiEENS_19__map_value_compareIS3_S4_NS_4lessIS3_EELb1EEENS_9allocatorIS4_EEE16__insert_node_atEPNS_15__tree_end_nodeIPNS_16__tree_node_baseIPvEEEERSG_SG_, symObjAddr: 0x3134, symBinAddr: 0x100005AF8, symSize: 0xCC }
  - { offsetInCU: 0xFB30, offset: 0xFB30, size: 0x8, addend: 0x0, symName: __ZNKSt3__110unique_ptrINS_11__tree_nodeINS_12__value_typeINS_4pairIiiEEiEEPvEENS_22__tree_node_destructorINS_9allocatorIS7_EEEEE3getB7v160006Ev, symObjAddr: 0x3200, symBinAddr: 0x100005BC4, symSize: 0x28 }
  - { offsetInCU: 0xFB55, offset: 0xFB55, size: 0x8, addend: 0x0, symName: __ZNSt3__110unique_ptrINS_11__tree_nodeINS_12__value_typeINS_4pairIiiEEiEEPvEENS_22__tree_node_destructorINS_9allocatorIS7_EEEEE7releaseB7v160006Ev, symObjAddr: 0x3228, symBinAddr: 0x100005BEC, symSize: 0x44 }
  - { offsetInCU: 0xFB89, offset: 0xFB89, size: 0x8, addend: 0x0, symName: __ZNSt3__110unique_ptrINS_11__tree_nodeINS_12__value_typeINS_4pairIiiEEiEEPvEENS_22__tree_node_destructorINS_9allocatorIS7_EEEEED1B7v160006Ev, symObjAddr: 0x326C, symBinAddr: 0x100005C30, symSize: 0x2C }
  - { offsetInCU: 0xFBB2, offset: 0xFBB2, size: 0x8, addend: 0x0, symName: __ZNSt3__115__tree_iteratorINS_12__value_typeINS_4pairIiiEEiEEPNS_11__tree_nodeIS4_PvEElEC1B7v160006ES8_, symObjAddr: 0x3298, symBinAddr: 0x100005C5C, symSize: 0x34 }
  - { offsetInCU: 0xFBF4, offset: 0xFBF4, size: 0x8, addend: 0x0, symName: __ZNSt3__14pairINS_15__tree_iteratorINS_12__value_typeINS0_IiiEEiEEPNS_11__tree_nodeIS4_PvEElEEbEC1B7v160006IS9_RbLS6_0EEEOT_OT0_, symObjAddr: 0x32CC, symBinAddr: 0x100005C90, symSize: 0x3C }
  - { offsetInCU: 0xFC51, offset: 0xFC51, size: 0x8, addend: 0x0, symName: __ZNKSt3__16__treeINS_12__value_typeINS_4pairIiiEEiEENS_19__map_value_compareIS3_S4_NS_4lessIS3_EELb1EEENS_9allocatorIS4_EEE10__root_ptrEv, symObjAddr: 0x3308, symBinAddr: 0x100005CCC, symSize: 0x24 }
  - { offsetInCU: 0xFC76, offset: 0xFC76, size: 0x8, addend: 0x0, symName: __ZNSt3__16__treeINS_12__value_typeINS_4pairIiiEEiEENS_19__map_value_compareIS3_S4_NS_4lessIS3_EELb1EEENS_9allocatorIS4_EEE10value_compB7v160006Ev, symObjAddr: 0x332C, symBinAddr: 0x100005CF0, symSize: 0x28 }
  - { offsetInCU: 0xFC9B, offset: 0xFC9B, size: 0x8, addend: 0x0, symName: __ZNKSt3__119__map_value_compareINS_4pairIiiEENS_12__value_typeIS2_iEENS_4lessIS2_EELb1EEclB7v160006ERKS2_RKS4_, symObjAddr: 0x3354, symBinAddr: 0x100005D18, symSize: 0x50 }
  - { offsetInCU: 0xFCDE, offset: 0xFCDE, size: 0x8, addend: 0x0, symName: __ZNKSt3__119__map_value_compareINS_4pairIiiEENS_12__value_typeIS2_iEENS_4lessIS2_EELb1EEclB7v160006ERKS4_RKS2_, symObjAddr: 0x33A4, symBinAddr: 0x100005D68, symSize: 0x48 }
  - { offsetInCU: 0xFD21, offset: 0xFD21, size: 0x8, addend: 0x0, symName: __ZNSt3__117__compressed_pairImNS_19__map_value_compareINS_4pairIiiEENS_12__value_typeIS3_iEENS_4lessIS3_EELb1EEEE6secondB7v160006Ev, symObjAddr: 0x33EC, symBinAddr: 0x100005DB0, symSize: 0x24 }
  - { offsetInCU: 0xFD46, offset: 0xFD46, size: 0x8, addend: 0x0, symName: __ZNSt3__122__compressed_pair_elemINS_19__map_value_compareINS_4pairIiiEENS_12__value_typeIS3_iEENS_4lessIS3_EELb1EEELi1ELb1EE5__getB7v160006Ev, symObjAddr: 0x3410, symBinAddr: 0x100005DD4, symSize: 0x14 }
  - { offsetInCU: 0xFD6B, offset: 0xFD6B, size: 0x8, addend: 0x0, symName: __ZNKSt3__14lessINS_4pairIiiEEEclB7v160006ERKS2_S5_, symObjAddr: 0x3424, symBinAddr: 0x100005DE8, symSize: 0x34 }
  - { offsetInCU: 0xFDAE, offset: 0xFDAE, size: 0x8, addend: 0x0, symName: __ZNKSt3__112__value_typeINS_4pairIiiEEiE11__get_valueB7v160006Ev, symObjAddr: 0x3458, symBinAddr: 0x100005E1C, symSize: 0x24 }
  - { offsetInCU: 0xFDD3, offset: 0xFDD3, size: 0x8, addend: 0x0, symName: __ZNSt3__116allocator_traitsINS_9allocatorINS_11__tree_nodeINS_12__value_typeINS_4pairIiiEEiEEPvEEEEE8allocateB7v160006ERS9_m, symObjAddr: 0x354C, symBinAddr: 0x100005F10, symSize: 0x2C }
  - { offsetInCU: 0xFE06, offset: 0xFE06, size: 0x8, addend: 0x0, symName: __ZNSt3__122__tree_node_destructorINS_9allocatorINS_11__tree_nodeINS_12__value_typeINS_4pairIiiEEiEEPvEEEEEC1B7v160006ERS9_b, symObjAddr: 0x3578, symBinAddr: 0x100005F3C, symSize: 0x48 }
  - { offsetInCU: 0xFE52, offset: 0xFE52, size: 0x8, addend: 0x0, symName: __ZNSt3__110unique_ptrINS_11__tree_nodeINS_12__value_typeINS_4pairIiiEEiEEPvEENS_22__tree_node_destructorINS_9allocatorIS7_EEEEEC1B7v160006ILb1EvEEPS7_NS_16__dependent_typeINS_27__unique_ptr_deleter_sfinaeISB_EEXT_EE20__good_rval_ref_typeE, symObjAddr: 0x35C0, symBinAddr: 0x100005F84, symSize: 0x3C }
  - { offsetInCU: 0xFEA2, offset: 0xFEA2, size: 0x8, addend: 0x0, symName: __ZNSt3__116allocator_traitsINS_9allocatorINS_11__tree_nodeINS_12__value_typeINS_4pairIiiEEiEEPvEEEEE9constructB7v160006INS4_IKS5_iEEJRKNS_21piecewise_construct_tENS_5tupleIJOS5_EEENSH_IJEEEEvEEvRS9_PT_DpOT0_, symObjAddr: 0x35FC, symBinAddr: 0x100005FC0, symSize: 0x44 }
  - { offsetInCU: 0xFF21, offset: 0xFF21, size: 0x8, addend: 0x0, symName: __ZNKSt3__110unique_ptrINS_11__tree_nodeINS_12__value_typeINS_4pairIiiEEiEEPvEENS_22__tree_node_destructorINS_9allocatorIS7_EEEEEptB7v160006Ev, symObjAddr: 0x3640, symBinAddr: 0x100006004, symSize: 0x28 }
  - { offsetInCU: 0xFF46, offset: 0xFF46, size: 0x8, addend: 0x0, symName: __ZNSt3__110unique_ptrINS_11__tree_nodeINS_12__value_typeINS_4pairIiiEEiEEPvEENS_22__tree_node_destructorINS_9allocatorIS7_EEEEE11get_deleterB7v160006Ev, symObjAddr: 0x3668, symBinAddr: 0x10000602C, symSize: 0x24 }
  - { offsetInCU: 0xFF6B, offset: 0xFF6B, size: 0x8, addend: 0x0, symName: __ZNSt3__19allocatorINS_11__tree_nodeINS_12__value_typeINS_4pairIiiEEiEEPvEEE8allocateB7v160006Em, symObjAddr: 0x368C, symBinAddr: 0x100006050, symSize: 0x5C }
  - { offsetInCU: 0xFFA8, offset: 0xFFA8, size: 0x8, addend: 0x0, symName: __ZNSt3__116allocator_traitsINS_9allocatorINS_11__tree_nodeINS_12__value_typeINS_4pairIiiEEiEEPvEEEEE8max_sizeB7v160006IS9_vEEmRKS9_, symObjAddr: 0x36E8, symBinAddr: 0x1000060AC, symSize: 0x24 }
  - { offsetInCU: 0xFFD6, offset: 0xFFD6, size: 0x8, addend: 0x0, symName: __ZNKSt3__19allocatorINS_11__tree_nodeINS_12__value_typeINS_4pairIiiEEiEEPvEEE8max_sizeB7v160006Ev, symObjAddr: 0x370C, symBinAddr: 0x1000060D0, symSize: 0x18 }
  - { offsetInCU: 0xFFFB, offset: 0xFFFB, size: 0x8, addend: 0x0, symName: __ZNSt3__122__tree_node_destructorINS_9allocatorINS_11__tree_nodeINS_12__value_typeINS_4pairIiiEEiEEPvEEEEEC2B7v160006ERS9_b, symObjAddr: 0x3724, symBinAddr: 0x1000060E8, symSize: 0x38 }
  - { offsetInCU: 0x10042, offset: 0x10042, size: 0x8, addend: 0x0, symName: __ZNSt3__110unique_ptrINS_11__tree_nodeINS_12__value_typeINS_4pairIiiEEiEEPvEENS_22__tree_node_destructorINS_9allocatorIS7_EEEEEC2B7v160006ILb1EvEEPS7_NS_16__dependent_typeINS_27__unique_ptr_deleter_sfinaeISB_EEXT_EE20__good_rval_ref_typeE, symObjAddr: 0x375C, symBinAddr: 0x100006120, symSize: 0x48 }
  - { offsetInCU: 0x10092, offset: 0x10092, size: 0x8, addend: 0x0, symName: __ZNSt3__117__compressed_pairIPNS_11__tree_nodeINS_12__value_typeINS_4pairIiiEEiEEPvEENS_22__tree_node_destructorINS_9allocatorIS7_EEEEEC1B7v160006IRS8_SC_EEOT_OT0_, symObjAddr: 0x37A4, symBinAddr: 0x100006168, symSize: 0x3C }
  - { offsetInCU: 0x100E9, offset: 0x100E9, size: 0x8, addend: 0x0, symName: __ZNSt3__117__compressed_pairIPNS_11__tree_nodeINS_12__value_typeINS_4pairIiiEEiEEPvEENS_22__tree_node_destructorINS_9allocatorIS7_EEEEEC2B7v160006IRS8_SC_EEOT_OT0_, symObjAddr: 0x37E0, symBinAddr: 0x1000061A4, symSize: 0x48 }
  - { offsetInCU: 0x10140, offset: 0x10140, size: 0x8, addend: 0x0, symName: __ZNSt3__122__compressed_pair_elemIPNS_11__tree_nodeINS_12__value_typeINS_4pairIiiEEiEEPvEELi0ELb0EEC2B7v160006IRS8_vEEOT_, symObjAddr: 0x3828, symBinAddr: 0x1000061EC, symSize: 0x24 }
  - { offsetInCU: 0x10181, offset: 0x10181, size: 0x8, addend: 0x0, symName: __ZNSt3__122__compressed_pair_elemINS_22__tree_node_destructorINS_9allocatorINS_11__tree_nodeINS_12__value_typeINS_4pairIiiEEiEEPvEEEEEELi1ELb0EEC2B7v160006ISB_vEEOT_, symObjAddr: 0x384C, symBinAddr: 0x100006210, symSize: 0x24 }
  - { offsetInCU: 0x101C2, offset: 0x101C2, size: 0x8, addend: 0x0, symName: __ZNSt3__19allocatorINS_11__tree_nodeINS_12__value_typeINS_4pairIiiEEiEEPvEEE9constructB7v160006INS3_IKS4_iEEJRKNS_21piecewise_construct_tENS_5tupleIJOS4_EEENSF_IJEEEEEEvPT_DpOT0_, symObjAddr: 0x3870, symBinAddr: 0x100006234, symSize: 0x44 }
  - { offsetInCU: 0x1023D, offset: 0x1023D, size: 0x8, addend: 0x0, symName: __ZNSt3__14pairIKNS0_IiiEEiEC1B7v160006IJOS1_EJEEENS_21piecewise_construct_tENS_5tupleIJDpT_EEENS7_IJDpT0_EEE, symObjAddr: 0x38B4, symBinAddr: 0x100006278, symSize: 0x44 }
  - { offsetInCU: 0x102A3, offset: 0x102A3, size: 0x8, addend: 0x0, symName: __ZNSt3__14pairIKNS0_IiiEEiEC1B7v160006IJOS1_EJEJLm0EEJEEENS_21piecewise_construct_tERNS_5tupleIJDpT_EEERNS7_IJDpT0_EEENS_15__tuple_indicesIJXspT1_EEEENSG_IJXspT2_EEEE, symObjAddr: 0x38F8, symBinAddr: 0x1000062BC, symSize: 0x3C }
  - { offsetInCU: 0x1032F, offset: 0x1032F, size: 0x8, addend: 0x0, symName: __ZNSt3__14pairIKNS0_IiiEEiEC2B7v160006IJOS1_EJEJLm0EEJEEENS_21piecewise_construct_tERNS_5tupleIJDpT_EEERNS7_IJDpT0_EEENS_15__tuple_indicesIJXspT1_EEEENSG_IJXspT2_EEEE, symObjAddr: 0x3934, symBinAddr: 0x1000062F8, symSize: 0x48 }
  - { offsetInCU: 0x103BB, offset: 0x103BB, size: 0x8, addend: 0x0, symName: __ZNSt3__112__tuple_leafILm0EONS_4pairIiiEELb0EE3getB7v160006Ev, symObjAddr: 0x39A0, symBinAddr: 0x100006364, symSize: 0x18 }
  - { offsetInCU: 0x103E0, offset: 0x103E0, size: 0x8, addend: 0x0, symName: __ZNKSt3__117__compressed_pairIPNS_11__tree_nodeINS_12__value_typeINS_4pairIiiEEiEEPvEENS_22__tree_node_destructorINS_9allocatorIS7_EEEEE5firstB7v160006Ev, symObjAddr: 0x39B8, symBinAddr: 0x10000637C, symSize: 0x24 }
  - { offsetInCU: 0x10405, offset: 0x10405, size: 0x8, addend: 0x0, symName: __ZNKSt3__122__compressed_pair_elemIPNS_11__tree_nodeINS_12__value_typeINS_4pairIiiEEiEEPvEELi0ELb0EE5__getB7v160006Ev, symObjAddr: 0x39DC, symBinAddr: 0x1000063A0, symSize: 0x14 }
  - { offsetInCU: 0x1042A, offset: 0x1042A, size: 0x8, addend: 0x0, symName: __ZNSt3__117__compressed_pairIPNS_11__tree_nodeINS_12__value_typeINS_4pairIiiEEiEEPvEENS_22__tree_node_destructorINS_9allocatorIS7_EEEEE6secondB7v160006Ev, symObjAddr: 0x39F0, symBinAddr: 0x1000063B4, symSize: 0x28 }
  - { offsetInCU: 0x1044F, offset: 0x1044F, size: 0x8, addend: 0x0, symName: __ZNSt3__122__compressed_pair_elemINS_22__tree_node_destructorINS_9allocatorINS_11__tree_nodeINS_12__value_typeINS_4pairIiiEEiEEPvEEEEEELi1ELb0EE5__getB7v160006Ev, symObjAddr: 0x3A18, symBinAddr: 0x1000063DC, symSize: 0x14 }
  - { offsetInCU: 0x10474, offset: 0x10474, size: 0x8, addend: 0x0, symName: __ZNSt3__16__treeINS_12__value_typeINS_4pairIiiEEiEENS_19__map_value_compareIS3_S4_NS_4lessIS3_EELb1EEENS_9allocatorIS4_EEE4sizeB7v160006Ev, symObjAddr: 0x3D58, symBinAddr: 0x10000671C, symSize: 0x28 }
  - { offsetInCU: 0x10499, offset: 0x10499, size: 0x8, addend: 0x0, symName: __ZNKSt3__116__tree_node_baseIPvE15__parent_unsafeB7v160006Ev, symObjAddr: 0x3D80, symBinAddr: 0x100006744, symSize: 0x18 }
  - { offsetInCU: 0x104BE, offset: 0x104BE, size: 0x8, addend: 0x0, symName: __ZNSt3__116__tree_node_baseIPvE12__set_parentB7v160006EPS2_, symObjAddr: 0x3F68, symBinAddr: 0x10000692C, symSize: 0x20 }
  - { offsetInCU: 0x104F2, offset: 0x104F2, size: 0x8, addend: 0x0, symName: __ZNSt3__117__compressed_pairImNS_19__map_value_compareINS_4pairIiiEENS_12__value_typeIS3_iEENS_4lessIS3_EELb1EEEE5firstB7v160006Ev, symObjAddr: 0x3F88, symBinAddr: 0x10000694C, symSize: 0x24 }
  - { offsetInCU: 0x10517, offset: 0x10517, size: 0x8, addend: 0x0, symName: __ZNSt3__122__compressed_pair_elemImLi0ELb0EE5__getB7v160006Ev, symObjAddr: 0x3FAC, symBinAddr: 0x100006970, symSize: 0x14 }
  - { offsetInCU: 0x1053C, offset: 0x1053C, size: 0x8, addend: 0x0, symName: __ZNSt3__117__compressed_pairIPNS_11__tree_nodeINS_12__value_typeINS_4pairIiiEEiEEPvEENS_22__tree_node_destructorINS_9allocatorIS7_EEEEE5firstB7v160006Ev, symObjAddr: 0x3FC0, symBinAddr: 0x100006984, symSize: 0x24 }
  - { offsetInCU: 0x10561, offset: 0x10561, size: 0x8, addend: 0x0, symName: __ZNSt3__122__compressed_pair_elemIPNS_11__tree_nodeINS_12__value_typeINS_4pairIiiEEiEEPvEELi0ELb0EE5__getB7v160006Ev, symObjAddr: 0x3FE4, symBinAddr: 0x1000069A8, symSize: 0x14 }
  - { offsetInCU: 0x10586, offset: 0x10586, size: 0x8, addend: 0x0, symName: __ZNSt3__110unique_ptrINS_11__tree_nodeINS_12__value_typeINS_4pairIiiEEiEEPvEENS_22__tree_node_destructorINS_9allocatorIS7_EEEEED2B7v160006Ev, symObjAddr: 0x3FF8, symBinAddr: 0x1000069BC, symSize: 0x30 }
  - { offsetInCU: 0x105AF, offset: 0x105AF, size: 0x8, addend: 0x0, symName: __ZNSt3__110unique_ptrINS_11__tree_nodeINS_12__value_typeINS_4pairIiiEEiEEPvEENS_22__tree_node_destructorINS_9allocatorIS7_EEEEE5resetB7v160006EPS7_, symObjAddr: 0x4028, symBinAddr: 0x1000069EC, symSize: 0x78 }
  - { offsetInCU: 0x105F2, offset: 0x105F2, size: 0x8, addend: 0x0, symName: __ZNSt3__122__tree_node_destructorINS_9allocatorINS_11__tree_nodeINS_12__value_typeINS_4pairIiiEEiEEPvEEEEEclB7v160006EPS8_, symObjAddr: 0x40A0, symBinAddr: 0x100006A64, symSize: 0x94 }
  - { offsetInCU: 0x10626, offset: 0x10626, size: 0x8, addend: 0x0, symName: __ZNSt3__115__tree_iteratorINS_12__value_typeINS_4pairIiiEEiEEPNS_11__tree_nodeIS4_PvEElEC2B7v160006ES8_, symObjAddr: 0x4134, symBinAddr: 0x100006AF8, symSize: 0x20 }
  - { offsetInCU: 0x1065E, offset: 0x1065E, size: 0x8, addend: 0x0, symName: __ZNSt3__14pairINS_15__tree_iteratorINS_12__value_typeINS0_IiiEEiEEPNS_11__tree_nodeIS4_PvEElEEbEC2B7v160006IS9_RbLS6_0EEEOT_OT0_, symObjAddr: 0x4154, symBinAddr: 0x100006B18, symSize: 0x38 }
  - { offsetInCU: 0x106BB, offset: 0x106BB, size: 0x8, addend: 0x0, symName: __ZNSt3__15tupleIJONS_4pairIiiEEEEC1B7v160006IJS2_ELi0EEEDpOT_, symObjAddr: 0x418C, symBinAddr: 0x100006B50, symSize: 0x34 }
  - { offsetInCU: 0x10704, offset: 0x10704, size: 0x8, addend: 0x0, symName: __ZNSt3__15tupleIJONS_4pairIiiEEEEC2B7v160006IJS2_ELi0EEEDpOT_, symObjAddr: 0x41C0, symBinAddr: 0x100006B84, symSize: 0x34 }
  - { offsetInCU: 0x1074D, offset: 0x1074D, size: 0x8, addend: 0x0, symName: __ZNSt3__112__tuple_implINS_15__tuple_indicesIJLm0EEEEJONS_4pairIiiEEEEC1B7v160006IJLm0EEJS5_EJEJEJS4_EEENS1_IJXspT_EEEENS_13__tuple_typesIJDpT0_EEENS1_IJXspT1_EEEENS9_IJDpT2_EEEDpOT3_, symObjAddr: 0x41F4, symBinAddr: 0x100006BB8, symSize: 0x34 }
  - { offsetInCU: 0x107DD, offset: 0x107DD, size: 0x8, addend: 0x0, symName: __ZNSt3__112__tuple_implINS_15__tuple_indicesIJLm0EEEEJONS_4pairIiiEEEEC2B7v160006IJLm0EEJS5_EJEJEJS4_EEENS1_IJXspT_EEEENS_13__tuple_typesIJDpT0_EEENS1_IJXspT1_EEEENS9_IJDpT2_EEEDpOT3_, symObjAddr: 0x4228, symBinAddr: 0x100006BEC, symSize: 0x34 }
  - { offsetInCU: 0x1086D, offset: 0x1086D, size: 0x8, addend: 0x0, symName: __ZNSt3__112__tuple_leafILm0EONS_4pairIiiEELb0EEC2B7v160006IS2_vEEOT_, symObjAddr: 0x425C, symBinAddr: 0x100006C20, symSize: 0x20 }
  - { offsetInCU: 0x108AF, offset: 0x108AF, size: 0x8, addend: 0x0, symName: __ZNSt3__114pointer_traitsIPNS_12__value_typeINS_4pairIiiEEiEEE10pointer_toB7v160006ERS4_, symObjAddr: 0x427C, symBinAddr: 0x100006C40, symSize: 0x14 }
  - { offsetInCU: 0x108D2, offset: 0x108D2, size: 0x8, addend: 0x0, symName: __ZNKSt3__115__tree_iteratorINS_12__value_typeINS_4pairIiiEEiEEPNS_11__tree_nodeIS4_PvEElE8__get_npB7v160006Ev, symObjAddr: 0x4290, symBinAddr: 0x100006C54, symSize: 0x18 }
  - { offsetInCU: 0x108F7, offset: 0x108F7, size: 0x8, addend: 0x0, symName: __ZNSt3__111char_traitsIcE6lengthEPKc, symObjAddr: 0x4494, symBinAddr: 0x100006E58, symSize: 0x34 }
  - { offsetInCU: 0x10938, offset: 0x10938, size: 0x8, addend: 0x0, symName: __ZNKSt3__113basic_ostreamIcNS_11char_traitsIcEEE6sentrycvbB7v160006Ev, symObjAddr: 0x44C8, symBinAddr: 0x100006E8C, symSize: 0x1C }
  - { offsetInCU: 0x1095D, offset: 0x1095D, size: 0x8, addend: 0x0, symName: __ZNSt3__119ostreambuf_iteratorIcNS_11char_traitsIcEEEC1B7v160006ERNS_13basic_ostreamIcS2_EE, symObjAddr: 0x4724, symBinAddr: 0x1000070E8, symSize: 0x34 }
  - { offsetInCU: 0x10994, offset: 0x10994, size: 0x8, addend: 0x0, symName: __ZNKSt3__18ios_base5flagsB7v160006Ev, symObjAddr: 0x4758, symBinAddr: 0x10000711C, symSize: 0x18 }
  - { offsetInCU: 0x109BB, offset: 0x109BB, size: 0x8, addend: 0x0, symName: __ZNKSt3__19basic_iosIcNS_11char_traitsIcEEE4fillB7v160006Ev, symObjAddr: 0x4770, symBinAddr: 0x100007134, symSize: 0x64 }
  - { offsetInCU: 0x109E1, offset: 0x109E1, size: 0x8, addend: 0x0, symName: __ZNKSt3__119ostreambuf_iteratorIcNS_11char_traitsIcEEE6failedB7v160006Ev, symObjAddr: 0x47D4, symBinAddr: 0x100007198, symSize: 0x24 }
  - { offsetInCU: 0x10A06, offset: 0x10A06, size: 0x8, addend: 0x0, symName: __ZNSt3__19basic_iosIcNS_11char_traitsIcEEE8setstateB7v160006Ej, symObjAddr: 0x47F8, symBinAddr: 0x1000071BC, symSize: 0x2C }
  - { offsetInCU: 0x10A3A, offset: 0x10A3A, size: 0x8, addend: 0x0, symName: __ZNKSt3__18ios_base5widthB7v160006Ev, symObjAddr: 0x4824, symBinAddr: 0x1000071E8, symSize: 0x18 }
  - { offsetInCU: 0x10A61, offset: 0x10A61, size: 0x8, addend: 0x0, symName: __ZNSt3__115basic_streambufIcNS_11char_traitsIcEEE5sputnB7v160006EPKcl, symObjAddr: 0x483C, symBinAddr: 0x100007200, symSize: 0x3C }
  - { offsetInCU: 0x10AA2, offset: 0x10AA2, size: 0x8, addend: 0x0, symName: __ZNSt3__112basic_stringIcNS_11char_traitsIcEENS_9allocatorIcEEEC1B7v160006Emc, symObjAddr: 0x4878, symBinAddr: 0x10000723C, symSize: 0x3C }
  - { offsetInCU: 0x10AE9, offset: 0x10AE9, size: 0x8, addend: 0x0, symName: __ZNSt3__112basic_stringIcNS_11char_traitsIcEENS_9allocatorIcEEE4dataB7v160006Ev, symObjAddr: 0x48B4, symBinAddr: 0x100007278, symSize: 0x28 }
  - { offsetInCU: 0x10B0E, offset: 0x10B0E, size: 0x8, addend: 0x0, symName: __ZNSt3__18ios_base5widthB7v160006El, symObjAddr: 0x48DC, symBinAddr: 0x1000072A0, symSize: 0x2C }
  - { offsetInCU: 0x10B53, offset: 0x10B53, size: 0x8, addend: 0x0, symName: __ZNSt3__112basic_stringIcNS_11char_traitsIcEENS_9allocatorIcEEEC2B7v160006Emc, symObjAddr: 0x4908, symBinAddr: 0x1000072CC, symSize: 0x54 }
  - { offsetInCU: 0x10B9A, offset: 0x10B9A, size: 0x8, addend: 0x0, symName: __ZNSt3__117__compressed_pairINS_12basic_stringIcNS_11char_traitsIcEENS_9allocatorIcEEE5__repES5_EC1B7v160006INS_18__default_init_tagESA_EEOT_OT0_, symObjAddr: 0x495C, symBinAddr: 0x100007320, symSize: 0x3C }
  - { offsetInCU: 0x10BF1, offset: 0x10BF1, size: 0x8, addend: 0x0, symName: __ZNSt3__117__compressed_pairINS_12basic_stringIcNS_11char_traitsIcEENS_9allocatorIcEEE5__repES5_EC2B7v160006INS_18__default_init_tagESA_EEOT_OT0_, symObjAddr: 0x49A8, symBinAddr: 0x10000736C, symSize: 0x3C }
  - { offsetInCU: 0x10C48, offset: 0x10C48, size: 0x8, addend: 0x0, symName: __ZNSt3__122__compressed_pair_elemINS_12basic_stringIcNS_11char_traitsIcEENS_9allocatorIcEEE5__repELi0ELb0EEC2B7v160006ENS_18__default_init_tagE, symObjAddr: 0x49E4, symBinAddr: 0x1000073A8, symSize: 0x14 }
  - { offsetInCU: 0x10C7C, offset: 0x10C7C, size: 0x8, addend: 0x0, symName: __ZNSt3__122__compressed_pair_elemINS_9allocatorIcEELi1ELb1EEC2B7v160006ENS_18__default_init_tagE, symObjAddr: 0x49F8, symBinAddr: 0x1000073BC, symSize: 0x2C }
  - { offsetInCU: 0x10CB0, offset: 0x10CB0, size: 0x8, addend: 0x0, symName: __ZNSt3__19allocatorIcEC2B7v160006Ev, symObjAddr: 0x4A24, symBinAddr: 0x1000073E8, symSize: 0x2C }
  - { offsetInCU: 0x10CD9, offset: 0x10CD9, size: 0x8, addend: 0x0, symName: __ZNSt3__116__non_trivial_ifILb1ENS_9allocatorIcEEEC2B7v160006Ev, symObjAddr: 0x4A50, symBinAddr: 0x100007414, symSize: 0x14 }
  - { offsetInCU: 0x10D02, offset: 0x10D02, size: 0x8, addend: 0x0, symName: __ZNSt3__112basic_stringIcNS_11char_traitsIcEENS_9allocatorIcEEE13__get_pointerB7v160006Ev, symObjAddr: 0x4A78, symBinAddr: 0x10000743C, symSize: 0x54 }
  - { offsetInCU: 0x10D27, offset: 0x10D27, size: 0x8, addend: 0x0, symName: __ZNKSt3__112basic_stringIcNS_11char_traitsIcEENS_9allocatorIcEEE9__is_longB7v160006Ev, symObjAddr: 0x4ACC, symBinAddr: 0x100007490, symSize: 0x38 }
  - { offsetInCU: 0x10D4C, offset: 0x10D4C, size: 0x8, addend: 0x0, symName: __ZNSt3__112basic_stringIcNS_11char_traitsIcEENS_9allocatorIcEEE18__get_long_pointerB7v160006Ev, symObjAddr: 0x4B04, symBinAddr: 0x1000074C8, symSize: 0x28 }
  - { offsetInCU: 0x10D71, offset: 0x10D71, size: 0x8, addend: 0x0, symName: __ZNSt3__112basic_stringIcNS_11char_traitsIcEENS_9allocatorIcEEE19__get_short_pointerB7v160006Ev, symObjAddr: 0x4B2C, symBinAddr: 0x1000074F0, symSize: 0x28 }
  - { offsetInCU: 0x10D96, offset: 0x10D96, size: 0x8, addend: 0x0, symName: __ZNKSt3__117__compressed_pairINS_12basic_stringIcNS_11char_traitsIcEENS_9allocatorIcEEE5__repES5_E5firstB7v160006Ev, symObjAddr: 0x4B54, symBinAddr: 0x100007518, symSize: 0x24 }
  - { offsetInCU: 0x10DBB, offset: 0x10DBB, size: 0x8, addend: 0x0, symName: __ZNKSt3__122__compressed_pair_elemINS_12basic_stringIcNS_11char_traitsIcEENS_9allocatorIcEEE5__repELi0ELb0EE5__getB7v160006Ev, symObjAddr: 0x4B78, symBinAddr: 0x10000753C, symSize: 0x14 }
  - { offsetInCU: 0x10DE0, offset: 0x10DE0, size: 0x8, addend: 0x0, symName: __ZNSt3__117__compressed_pairINS_12basic_stringIcNS_11char_traitsIcEENS_9allocatorIcEEE5__repES5_E5firstB7v160006Ev, symObjAddr: 0x4B8C, symBinAddr: 0x100007550, symSize: 0x24 }
  - { offsetInCU: 0x10E05, offset: 0x10E05, size: 0x8, addend: 0x0, symName: __ZNSt3__122__compressed_pair_elemINS_12basic_stringIcNS_11char_traitsIcEENS_9allocatorIcEEE5__repELi0ELb0EE5__getB7v160006Ev, symObjAddr: 0x4BB0, symBinAddr: 0x100007574, symSize: 0x14 }
  - { offsetInCU: 0x10E2A, offset: 0x10E2A, size: 0x8, addend: 0x0, symName: __ZNSt3__114pointer_traitsIPcE10pointer_toB7v160006ERc, symObjAddr: 0x4BC4, symBinAddr: 0x100007588, symSize: 0x14 }
  - { offsetInCU: 0x10E4D, offset: 0x10E4D, size: 0x8, addend: 0x0, symName: __ZNSt3__119ostreambuf_iteratorIcNS_11char_traitsIcEEEC2B7v160006ERNS_13basic_ostreamIcS2_EE, symObjAddr: 0x4BD8, symBinAddr: 0x10000759C, symSize: 0x54 }
  - { offsetInCU: 0x10E84, offset: 0x10E84, size: 0x8, addend: 0x0, symName: __ZNKSt3__19basic_iosIcNS_11char_traitsIcEEE5rdbufB7v160006Ev, symObjAddr: 0x4C2C, symBinAddr: 0x1000075F0, symSize: 0x24 }
  - { offsetInCU: 0x10EAA, offset: 0x10EAA, size: 0x8, addend: 0x0, symName: __ZNKSt3__18ios_base5rdbufB7v160006Ev, symObjAddr: 0x4C50, symBinAddr: 0x100007614, symSize: 0x18 }
  - { offsetInCU: 0x10ECF, offset: 0x10ECF, size: 0x8, addend: 0x0, symName: __ZNSt3__111char_traitsIcE11eq_int_typeEii, symObjAddr: 0x4C68, symBinAddr: 0x10000762C, symSize: 0x28 }
  - { offsetInCU: 0x10F00, offset: 0x10F00, size: 0x8, addend: 0x0, symName: __ZNSt3__111char_traitsIcE3eofEv, symObjAddr: 0x4C90, symBinAddr: 0x100007654, symSize: 0x8 }
  - { offsetInCU: 0x10F14, offset: 0x10F14, size: 0x8, addend: 0x0, symName: __ZNKSt3__19basic_iosIcNS_11char_traitsIcEEE5widenB7v160006Ec, symObjAddr: 0x4C98, symBinAddr: 0x10000765C, symSize: 0x84 }
  - { offsetInCU: 0x10F80, offset: 0x10F80, size: 0x8, addend: 0x0, symName: __ZNKSt3__15ctypeIcE5widenB7v160006Ec, symObjAddr: 0x4D48, symBinAddr: 0x10000770C, symSize: 0x38 }
  - { offsetInCU: 0x10FB4, offset: 0x10FB4, size: 0x8, addend: 0x0, symName: __ZNSt3__18ios_base8setstateB7v160006Ej, symObjAddr: 0x4D80, symBinAddr: 0x100007744, symSize: 0x34 }
...
